ARM GAS  C:\Users\maari\AppData\Local\Temp\ccWaE7UA.s 			page 1


   1              		.cpu cortex-m4
   2              		.arch armv7e-m
   3              		.fpu fpv4-sp-d16
   4              		.eabi_attribute 27, 1
   5              		.eabi_attribute 28, 1
   6              		.eabi_attribute 20, 1
   7              		.eabi_attribute 21, 1
   8              		.eabi_attribute 23, 3
   9              		.eabi_attribute 24, 1
  10              		.eabi_attribute 25, 1
  11              		.eabi_attribute 26, 1
  12              		.eabi_attribute 30, 1
  13              		.eabi_attribute 34, 1
  14              		.eabi_attribute 18, 4
  15              		.file	"stm32f4xx_hal_dma_ex.c"
  16              		.text
  17              	.Ltext0:
  18              		.cfi_sections	.debug_frame
  19              		.file 1 "Drivers/STM32F4xx_HAL_Driver/Src/stm32f4xx_hal_dma_ex.c"
  20              		.section	.text.HAL_DMAEx_MultiBufferStart,"ax",%progbits
  21              		.align	1
  22              		.global	HAL_DMAEx_MultiBufferStart
  23              		.syntax unified
  24              		.thumb
  25              		.thumb_func
  27              	HAL_DMAEx_MultiBufferStart:
  28              	.LVL0:
  29              	.LFB134:
   1:Drivers/STM32F4xx_HAL_Driver/Src/stm32f4xx_hal_dma_ex.c **** /**
   2:Drivers/STM32F4xx_HAL_Driver/Src/stm32f4xx_hal_dma_ex.c ****   ******************************************************************************
   3:Drivers/STM32F4xx_HAL_Driver/Src/stm32f4xx_hal_dma_ex.c ****   * @file    stm32f4xx_hal_dma_ex.c
   4:Drivers/STM32F4xx_HAL_Driver/Src/stm32f4xx_hal_dma_ex.c ****   * @author  MCD Application Team
   5:Drivers/STM32F4xx_HAL_Driver/Src/stm32f4xx_hal_dma_ex.c ****   * @brief   DMA Extension HAL module driver
   6:Drivers/STM32F4xx_HAL_Driver/Src/stm32f4xx_hal_dma_ex.c ****   *         This file provides firmware functions to manage the following 
   7:Drivers/STM32F4xx_HAL_Driver/Src/stm32f4xx_hal_dma_ex.c ****   *         functionalities of the DMA Extension peripheral:
   8:Drivers/STM32F4xx_HAL_Driver/Src/stm32f4xx_hal_dma_ex.c ****   *           + Extended features functions
   9:Drivers/STM32F4xx_HAL_Driver/Src/stm32f4xx_hal_dma_ex.c ****   *
  10:Drivers/STM32F4xx_HAL_Driver/Src/stm32f4xx_hal_dma_ex.c ****   @verbatim
  11:Drivers/STM32F4xx_HAL_Driver/Src/stm32f4xx_hal_dma_ex.c ****   ==============================================================================
  12:Drivers/STM32F4xx_HAL_Driver/Src/stm32f4xx_hal_dma_ex.c ****                         ##### How to use this driver #####
  13:Drivers/STM32F4xx_HAL_Driver/Src/stm32f4xx_hal_dma_ex.c ****   ==============================================================================
  14:Drivers/STM32F4xx_HAL_Driver/Src/stm32f4xx_hal_dma_ex.c ****   [..]
  15:Drivers/STM32F4xx_HAL_Driver/Src/stm32f4xx_hal_dma_ex.c ****   The DMA Extension HAL driver can be used as follows:
  16:Drivers/STM32F4xx_HAL_Driver/Src/stm32f4xx_hal_dma_ex.c ****    (#) Start a multi buffer transfer using the HAL_DMA_MultiBufferStart() function
  17:Drivers/STM32F4xx_HAL_Driver/Src/stm32f4xx_hal_dma_ex.c ****        for polling mode or HAL_DMA_MultiBufferStart_IT() for interrupt mode.
  18:Drivers/STM32F4xx_HAL_Driver/Src/stm32f4xx_hal_dma_ex.c ****                    
  19:Drivers/STM32F4xx_HAL_Driver/Src/stm32f4xx_hal_dma_ex.c ****      -@-  In Memory-to-Memory transfer mode, Multi (Double) Buffer mode is not allowed.
  20:Drivers/STM32F4xx_HAL_Driver/Src/stm32f4xx_hal_dma_ex.c ****      -@-  When Multi (Double) Buffer mode is enabled the, transfer is circular by default.
  21:Drivers/STM32F4xx_HAL_Driver/Src/stm32f4xx_hal_dma_ex.c ****      -@-  In Multi (Double) buffer mode, it is possible to update the base address for 
  22:Drivers/STM32F4xx_HAL_Driver/Src/stm32f4xx_hal_dma_ex.c ****           the AHB memory port on the fly (DMA_SxM0AR or DMA_SxM1AR) when the stream is enabled. 
  23:Drivers/STM32F4xx_HAL_Driver/Src/stm32f4xx_hal_dma_ex.c ****   
  24:Drivers/STM32F4xx_HAL_Driver/Src/stm32f4xx_hal_dma_ex.c ****   @endverbatim
  25:Drivers/STM32F4xx_HAL_Driver/Src/stm32f4xx_hal_dma_ex.c ****   ******************************************************************************
  26:Drivers/STM32F4xx_HAL_Driver/Src/stm32f4xx_hal_dma_ex.c ****   * @attention
  27:Drivers/STM32F4xx_HAL_Driver/Src/stm32f4xx_hal_dma_ex.c ****   *
  28:Drivers/STM32F4xx_HAL_Driver/Src/stm32f4xx_hal_dma_ex.c ****   * Copyright (c) 2017 STMicroelectronics.
  29:Drivers/STM32F4xx_HAL_Driver/Src/stm32f4xx_hal_dma_ex.c ****   * All rights reserved.
ARM GAS  C:\Users\maari\AppData\Local\Temp\ccWaE7UA.s 			page 2


  30:Drivers/STM32F4xx_HAL_Driver/Src/stm32f4xx_hal_dma_ex.c ****   *
  31:Drivers/STM32F4xx_HAL_Driver/Src/stm32f4xx_hal_dma_ex.c ****   * This software is licensed under terms that can be found in the LICENSE file in
  32:Drivers/STM32F4xx_HAL_Driver/Src/stm32f4xx_hal_dma_ex.c ****   * the root directory of this software component.
  33:Drivers/STM32F4xx_HAL_Driver/Src/stm32f4xx_hal_dma_ex.c ****   * If no LICENSE file comes with this software, it is provided AS-IS.
  34:Drivers/STM32F4xx_HAL_Driver/Src/stm32f4xx_hal_dma_ex.c ****   *
  35:Drivers/STM32F4xx_HAL_Driver/Src/stm32f4xx_hal_dma_ex.c ****   ******************************************************************************
  36:Drivers/STM32F4xx_HAL_Driver/Src/stm32f4xx_hal_dma_ex.c ****   */
  37:Drivers/STM32F4xx_HAL_Driver/Src/stm32f4xx_hal_dma_ex.c **** 
  38:Drivers/STM32F4xx_HAL_Driver/Src/stm32f4xx_hal_dma_ex.c **** /* Includes ------------------------------------------------------------------*/
  39:Drivers/STM32F4xx_HAL_Driver/Src/stm32f4xx_hal_dma_ex.c **** #include "stm32f4xx_hal.h"
  40:Drivers/STM32F4xx_HAL_Driver/Src/stm32f4xx_hal_dma_ex.c **** 
  41:Drivers/STM32F4xx_HAL_Driver/Src/stm32f4xx_hal_dma_ex.c **** /** @addtogroup STM32F4xx_HAL_Driver
  42:Drivers/STM32F4xx_HAL_Driver/Src/stm32f4xx_hal_dma_ex.c ****   * @{
  43:Drivers/STM32F4xx_HAL_Driver/Src/stm32f4xx_hal_dma_ex.c ****   */
  44:Drivers/STM32F4xx_HAL_Driver/Src/stm32f4xx_hal_dma_ex.c **** 
  45:Drivers/STM32F4xx_HAL_Driver/Src/stm32f4xx_hal_dma_ex.c **** /** @defgroup DMAEx DMAEx
  46:Drivers/STM32F4xx_HAL_Driver/Src/stm32f4xx_hal_dma_ex.c ****   * @brief DMA Extended HAL module driver
  47:Drivers/STM32F4xx_HAL_Driver/Src/stm32f4xx_hal_dma_ex.c ****   * @{
  48:Drivers/STM32F4xx_HAL_Driver/Src/stm32f4xx_hal_dma_ex.c ****   */
  49:Drivers/STM32F4xx_HAL_Driver/Src/stm32f4xx_hal_dma_ex.c **** 
  50:Drivers/STM32F4xx_HAL_Driver/Src/stm32f4xx_hal_dma_ex.c **** #ifdef HAL_DMA_MODULE_ENABLED
  51:Drivers/STM32F4xx_HAL_Driver/Src/stm32f4xx_hal_dma_ex.c **** 
  52:Drivers/STM32F4xx_HAL_Driver/Src/stm32f4xx_hal_dma_ex.c **** /* Private types -------------------------------------------------------------*/
  53:Drivers/STM32F4xx_HAL_Driver/Src/stm32f4xx_hal_dma_ex.c **** /* Private variables ---------------------------------------------------------*/
  54:Drivers/STM32F4xx_HAL_Driver/Src/stm32f4xx_hal_dma_ex.c **** /* Private Constants ---------------------------------------------------------*/
  55:Drivers/STM32F4xx_HAL_Driver/Src/stm32f4xx_hal_dma_ex.c **** /* Private macros ------------------------------------------------------------*/
  56:Drivers/STM32F4xx_HAL_Driver/Src/stm32f4xx_hal_dma_ex.c **** /* Private functions ---------------------------------------------------------*/
  57:Drivers/STM32F4xx_HAL_Driver/Src/stm32f4xx_hal_dma_ex.c **** /** @addtogroup DMAEx_Private_Functions
  58:Drivers/STM32F4xx_HAL_Driver/Src/stm32f4xx_hal_dma_ex.c ****   * @{
  59:Drivers/STM32F4xx_HAL_Driver/Src/stm32f4xx_hal_dma_ex.c ****   */
  60:Drivers/STM32F4xx_HAL_Driver/Src/stm32f4xx_hal_dma_ex.c **** static void DMA_MultiBufferSetConfig(DMA_HandleTypeDef *hdma, uint32_t SrcAddress, uint32_t DstAddr
  61:Drivers/STM32F4xx_HAL_Driver/Src/stm32f4xx_hal_dma_ex.c **** /**
  62:Drivers/STM32F4xx_HAL_Driver/Src/stm32f4xx_hal_dma_ex.c ****   * @}
  63:Drivers/STM32F4xx_HAL_Driver/Src/stm32f4xx_hal_dma_ex.c ****   */
  64:Drivers/STM32F4xx_HAL_Driver/Src/stm32f4xx_hal_dma_ex.c **** 
  65:Drivers/STM32F4xx_HAL_Driver/Src/stm32f4xx_hal_dma_ex.c **** /* Exported functions ---------------------------------------------------------*/
  66:Drivers/STM32F4xx_HAL_Driver/Src/stm32f4xx_hal_dma_ex.c **** 
  67:Drivers/STM32F4xx_HAL_Driver/Src/stm32f4xx_hal_dma_ex.c **** /** @addtogroup DMAEx_Exported_Functions
  68:Drivers/STM32F4xx_HAL_Driver/Src/stm32f4xx_hal_dma_ex.c ****   * @{
  69:Drivers/STM32F4xx_HAL_Driver/Src/stm32f4xx_hal_dma_ex.c ****   */
  70:Drivers/STM32F4xx_HAL_Driver/Src/stm32f4xx_hal_dma_ex.c **** 
  71:Drivers/STM32F4xx_HAL_Driver/Src/stm32f4xx_hal_dma_ex.c **** 
  72:Drivers/STM32F4xx_HAL_Driver/Src/stm32f4xx_hal_dma_ex.c **** /** @addtogroup DMAEx_Exported_Functions_Group1
  73:Drivers/STM32F4xx_HAL_Driver/Src/stm32f4xx_hal_dma_ex.c ****   *
  74:Drivers/STM32F4xx_HAL_Driver/Src/stm32f4xx_hal_dma_ex.c **** @verbatim   
  75:Drivers/STM32F4xx_HAL_Driver/Src/stm32f4xx_hal_dma_ex.c ****  ===============================================================================
  76:Drivers/STM32F4xx_HAL_Driver/Src/stm32f4xx_hal_dma_ex.c ****                 #####  Extended features functions  #####
  77:Drivers/STM32F4xx_HAL_Driver/Src/stm32f4xx_hal_dma_ex.c ****  ===============================================================================  
  78:Drivers/STM32F4xx_HAL_Driver/Src/stm32f4xx_hal_dma_ex.c ****     [..]  This section provides functions allowing to:
  79:Drivers/STM32F4xx_HAL_Driver/Src/stm32f4xx_hal_dma_ex.c ****       (+) Configure the source, destination address and data length and 
  80:Drivers/STM32F4xx_HAL_Driver/Src/stm32f4xx_hal_dma_ex.c ****           Start MultiBuffer DMA transfer
  81:Drivers/STM32F4xx_HAL_Driver/Src/stm32f4xx_hal_dma_ex.c ****       (+) Configure the source, destination address and data length and 
  82:Drivers/STM32F4xx_HAL_Driver/Src/stm32f4xx_hal_dma_ex.c ****           Start MultiBuffer DMA transfer with interrupt
  83:Drivers/STM32F4xx_HAL_Driver/Src/stm32f4xx_hal_dma_ex.c ****       (+) Change on the fly the memory0 or memory1 address.
  84:Drivers/STM32F4xx_HAL_Driver/Src/stm32f4xx_hal_dma_ex.c ****       
  85:Drivers/STM32F4xx_HAL_Driver/Src/stm32f4xx_hal_dma_ex.c **** @endverbatim
  86:Drivers/STM32F4xx_HAL_Driver/Src/stm32f4xx_hal_dma_ex.c ****   * @{
ARM GAS  C:\Users\maari\AppData\Local\Temp\ccWaE7UA.s 			page 3


  87:Drivers/STM32F4xx_HAL_Driver/Src/stm32f4xx_hal_dma_ex.c ****   */
  88:Drivers/STM32F4xx_HAL_Driver/Src/stm32f4xx_hal_dma_ex.c **** 
  89:Drivers/STM32F4xx_HAL_Driver/Src/stm32f4xx_hal_dma_ex.c **** 
  90:Drivers/STM32F4xx_HAL_Driver/Src/stm32f4xx_hal_dma_ex.c **** /**
  91:Drivers/STM32F4xx_HAL_Driver/Src/stm32f4xx_hal_dma_ex.c ****   * @brief  Starts the multi_buffer DMA Transfer.
  92:Drivers/STM32F4xx_HAL_Driver/Src/stm32f4xx_hal_dma_ex.c ****   * @param  hdma       pointer to a DMA_HandleTypeDef structure that contains
  93:Drivers/STM32F4xx_HAL_Driver/Src/stm32f4xx_hal_dma_ex.c ****   *                     the configuration information for the specified DMA Stream.  
  94:Drivers/STM32F4xx_HAL_Driver/Src/stm32f4xx_hal_dma_ex.c ****   * @param  SrcAddress The source memory Buffer address
  95:Drivers/STM32F4xx_HAL_Driver/Src/stm32f4xx_hal_dma_ex.c ****   * @param  DstAddress The destination memory Buffer address
  96:Drivers/STM32F4xx_HAL_Driver/Src/stm32f4xx_hal_dma_ex.c ****   * @param  SecondMemAddress The second memory Buffer address in case of multi buffer Transfer  
  97:Drivers/STM32F4xx_HAL_Driver/Src/stm32f4xx_hal_dma_ex.c ****   * @param  DataLength The length of data to be transferred from source to destination
  98:Drivers/STM32F4xx_HAL_Driver/Src/stm32f4xx_hal_dma_ex.c ****   * @retval HAL status
  99:Drivers/STM32F4xx_HAL_Driver/Src/stm32f4xx_hal_dma_ex.c ****   */
 100:Drivers/STM32F4xx_HAL_Driver/Src/stm32f4xx_hal_dma_ex.c **** HAL_StatusTypeDef HAL_DMAEx_MultiBufferStart(DMA_HandleTypeDef *hdma, uint32_t SrcAddress, uint32_t
 101:Drivers/STM32F4xx_HAL_Driver/Src/stm32f4xx_hal_dma_ex.c **** {
  30              		.loc 1 101 1 view -0
  31              		.cfi_startproc
  32              		@ args = 4, pretend = 0, frame = 0
  33              		@ frame_needed = 0, uses_anonymous_args = 0
  34              		@ link register save eliminated.
  35              		.loc 1 101 1 is_stmt 0 view .LVU1
  36 0000 30B4     		push	{r4, r5}
  37              	.LCFI0:
  38              		.cfi_def_cfa_offset 8
  39              		.cfi_offset 4, -8
  40              		.cfi_offset 5, -4
 102:Drivers/STM32F4xx_HAL_Driver/Src/stm32f4xx_hal_dma_ex.c ****   HAL_StatusTypeDef status = HAL_OK;
  41              		.loc 1 102 3 is_stmt 1 view .LVU2
  42              	.LVL1:
 103:Drivers/STM32F4xx_HAL_Driver/Src/stm32f4xx_hal_dma_ex.c ****   
 104:Drivers/STM32F4xx_HAL_Driver/Src/stm32f4xx_hal_dma_ex.c ****   /* Check the parameters */
 105:Drivers/STM32F4xx_HAL_Driver/Src/stm32f4xx_hal_dma_ex.c ****   assert_param(IS_DMA_BUFFER_SIZE(DataLength));
  43              		.loc 1 105 3 view .LVU3
 106:Drivers/STM32F4xx_HAL_Driver/Src/stm32f4xx_hal_dma_ex.c ****   
 107:Drivers/STM32F4xx_HAL_Driver/Src/stm32f4xx_hal_dma_ex.c ****   /* Memory-to-memory transfer not supported in double buffering mode */
 108:Drivers/STM32F4xx_HAL_Driver/Src/stm32f4xx_hal_dma_ex.c ****   if (hdma->Init.Direction == DMA_MEMORY_TO_MEMORY)
  44              		.loc 1 108 3 view .LVU4
  45              		.loc 1 108 6 is_stmt 0 view .LVU5
  46 0002 8468     		ldr	r4, [r0, #8]
  47 0004 802C     		cmp	r4, #128
  48 0006 12D0     		beq	.L9
 109:Drivers/STM32F4xx_HAL_Driver/Src/stm32f4xx_hal_dma_ex.c ****   {
 110:Drivers/STM32F4xx_HAL_Driver/Src/stm32f4xx_hal_dma_ex.c ****     hdma->ErrorCode = HAL_DMA_ERROR_NOT_SUPPORTED;
 111:Drivers/STM32F4xx_HAL_Driver/Src/stm32f4xx_hal_dma_ex.c ****     status = HAL_ERROR;
 112:Drivers/STM32F4xx_HAL_Driver/Src/stm32f4xx_hal_dma_ex.c ****   }
 113:Drivers/STM32F4xx_HAL_Driver/Src/stm32f4xx_hal_dma_ex.c ****   else
 114:Drivers/STM32F4xx_HAL_Driver/Src/stm32f4xx_hal_dma_ex.c ****   {
 115:Drivers/STM32F4xx_HAL_Driver/Src/stm32f4xx_hal_dma_ex.c ****     /* Process Locked */
 116:Drivers/STM32F4xx_HAL_Driver/Src/stm32f4xx_hal_dma_ex.c ****     __HAL_LOCK(hdma);
  49              		.loc 1 116 5 is_stmt 1 view .LVU6
  50              		.loc 1 116 5 view .LVU7
  51 0008 90F834C0 		ldrb	ip, [r0, #52]	@ zero_extendqisi2
  52 000c BCF1010F 		cmp	ip, #1
  53 0010 32D0     		beq	.L6
  54              		.loc 1 116 5 discriminator 2 view .LVU8
  55 0012 4FF0010C 		mov	ip, #1
  56 0016 80F834C0 		strb	ip, [r0, #52]
ARM GAS  C:\Users\maari\AppData\Local\Temp\ccWaE7UA.s 			page 4


  57              		.loc 1 116 5 discriminator 2 view .LVU9
 117:Drivers/STM32F4xx_HAL_Driver/Src/stm32f4xx_hal_dma_ex.c ****     
 118:Drivers/STM32F4xx_HAL_Driver/Src/stm32f4xx_hal_dma_ex.c ****     if(HAL_DMA_STATE_READY == hdma->State)
  58              		.loc 1 118 5 view .LVU10
  59              		.loc 1 118 35 is_stmt 0 view .LVU11
  60 001a 90F835C0 		ldrb	ip, [r0, #53]	@ zero_extendqisi2
  61 001e 5FFA8CFC 		uxtb	ip, ip
  62              		.loc 1 118 7 view .LVU12
  63 0022 BCF1010F 		cmp	ip, #1
  64 0026 07D0     		beq	.L10
 119:Drivers/STM32F4xx_HAL_Driver/Src/stm32f4xx_hal_dma_ex.c ****     {
 120:Drivers/STM32F4xx_HAL_Driver/Src/stm32f4xx_hal_dma_ex.c ****       /* Change DMA peripheral state */
 121:Drivers/STM32F4xx_HAL_Driver/Src/stm32f4xx_hal_dma_ex.c ****       hdma->State = HAL_DMA_STATE_BUSY; 
 122:Drivers/STM32F4xx_HAL_Driver/Src/stm32f4xx_hal_dma_ex.c ****       
 123:Drivers/STM32F4xx_HAL_Driver/Src/stm32f4xx_hal_dma_ex.c ****       /* Enable the double buffer mode */
 124:Drivers/STM32F4xx_HAL_Driver/Src/stm32f4xx_hal_dma_ex.c ****       hdma->Instance->CR |= (uint32_t)DMA_SxCR_DBM;
 125:Drivers/STM32F4xx_HAL_Driver/Src/stm32f4xx_hal_dma_ex.c ****       
 126:Drivers/STM32F4xx_HAL_Driver/Src/stm32f4xx_hal_dma_ex.c ****       /* Configure DMA Stream destination address */
 127:Drivers/STM32F4xx_HAL_Driver/Src/stm32f4xx_hal_dma_ex.c ****       hdma->Instance->M1AR = SecondMemAddress;
 128:Drivers/STM32F4xx_HAL_Driver/Src/stm32f4xx_hal_dma_ex.c ****       
 129:Drivers/STM32F4xx_HAL_Driver/Src/stm32f4xx_hal_dma_ex.c ****       /* Configure the source, destination address and the data length */
 130:Drivers/STM32F4xx_HAL_Driver/Src/stm32f4xx_hal_dma_ex.c ****       DMA_MultiBufferSetConfig(hdma, SrcAddress, DstAddress, DataLength);
 131:Drivers/STM32F4xx_HAL_Driver/Src/stm32f4xx_hal_dma_ex.c ****       
 132:Drivers/STM32F4xx_HAL_Driver/Src/stm32f4xx_hal_dma_ex.c ****       /* Enable the peripheral */
 133:Drivers/STM32F4xx_HAL_Driver/Src/stm32f4xx_hal_dma_ex.c ****       __HAL_DMA_ENABLE(hdma);
 134:Drivers/STM32F4xx_HAL_Driver/Src/stm32f4xx_hal_dma_ex.c ****     }
 135:Drivers/STM32F4xx_HAL_Driver/Src/stm32f4xx_hal_dma_ex.c ****     else
 136:Drivers/STM32F4xx_HAL_Driver/Src/stm32f4xx_hal_dma_ex.c ****     {
 137:Drivers/STM32F4xx_HAL_Driver/Src/stm32f4xx_hal_dma_ex.c ****       /* Return error status */
 138:Drivers/STM32F4xx_HAL_Driver/Src/stm32f4xx_hal_dma_ex.c ****       status = HAL_BUSY;
  65              		.loc 1 138 14 view .LVU13
  66 0028 0220     		movs	r0, #2
  67              	.LVL2:
  68              	.L3:
 139:Drivers/STM32F4xx_HAL_Driver/Src/stm32f4xx_hal_dma_ex.c ****     }
 140:Drivers/STM32F4xx_HAL_Driver/Src/stm32f4xx_hal_dma_ex.c ****   }
 141:Drivers/STM32F4xx_HAL_Driver/Src/stm32f4xx_hal_dma_ex.c ****   return status;
 142:Drivers/STM32F4xx_HAL_Driver/Src/stm32f4xx_hal_dma_ex.c **** }
  69              		.loc 1 142 1 view .LVU14
  70 002a 30BC     		pop	{r4, r5}
  71              	.LCFI1:
  72              		.cfi_remember_state
  73              		.cfi_restore 5
  74              		.cfi_restore 4
  75              		.cfi_def_cfa_offset 0
  76              	.LVL3:
  77              		.loc 1 142 1 view .LVU15
  78 002c 7047     		bx	lr
  79              	.LVL4:
  80              	.L9:
  81              	.LCFI2:
  82              		.cfi_restore_state
 110:Drivers/STM32F4xx_HAL_Driver/Src/stm32f4xx_hal_dma_ex.c ****     status = HAL_ERROR;
  83              		.loc 1 110 5 is_stmt 1 view .LVU16
 110:Drivers/STM32F4xx_HAL_Driver/Src/stm32f4xx_hal_dma_ex.c ****     status = HAL_ERROR;
  84              		.loc 1 110 21 is_stmt 0 view .LVU17
  85 002e 4FF48073 		mov	r3, #256
ARM GAS  C:\Users\maari\AppData\Local\Temp\ccWaE7UA.s 			page 5


  86              	.LVL5:
 110:Drivers/STM32F4xx_HAL_Driver/Src/stm32f4xx_hal_dma_ex.c ****     status = HAL_ERROR;
  87              		.loc 1 110 21 view .LVU18
  88 0032 4365     		str	r3, [r0, #84]
 111:Drivers/STM32F4xx_HAL_Driver/Src/stm32f4xx_hal_dma_ex.c ****   }
  89              		.loc 1 111 5 is_stmt 1 view .LVU19
  90              	.LVL6:
 111:Drivers/STM32F4xx_HAL_Driver/Src/stm32f4xx_hal_dma_ex.c ****   }
  91              		.loc 1 111 12 is_stmt 0 view .LVU20
  92 0034 0120     		movs	r0, #1
  93              	.LVL7:
 111:Drivers/STM32F4xx_HAL_Driver/Src/stm32f4xx_hal_dma_ex.c ****   }
  94              		.loc 1 111 12 view .LVU21
  95 0036 F8E7     		b	.L3
  96              	.LVL8:
  97              	.L10:
 121:Drivers/STM32F4xx_HAL_Driver/Src/stm32f4xx_hal_dma_ex.c ****       
  98              		.loc 1 121 7 is_stmt 1 view .LVU22
 121:Drivers/STM32F4xx_HAL_Driver/Src/stm32f4xx_hal_dma_ex.c ****       
  99              		.loc 1 121 19 is_stmt 0 view .LVU23
 100 0038 0224     		movs	r4, #2
 101 003a 80F83540 		strb	r4, [r0, #53]
 124:Drivers/STM32F4xx_HAL_Driver/Src/stm32f4xx_hal_dma_ex.c ****       
 102              		.loc 1 124 7 is_stmt 1 view .LVU24
 124:Drivers/STM32F4xx_HAL_Driver/Src/stm32f4xx_hal_dma_ex.c ****       
 103              		.loc 1 124 11 is_stmt 0 view .LVU25
 104 003e 0568     		ldr	r5, [r0]
 124:Drivers/STM32F4xx_HAL_Driver/Src/stm32f4xx_hal_dma_ex.c ****       
 105              		.loc 1 124 21 view .LVU26
 106 0040 2C68     		ldr	r4, [r5]
 124:Drivers/STM32F4xx_HAL_Driver/Src/stm32f4xx_hal_dma_ex.c ****       
 107              		.loc 1 124 26 view .LVU27
 108 0042 44F48024 		orr	r4, r4, #262144
 109 0046 2C60     		str	r4, [r5]
 127:Drivers/STM32F4xx_HAL_Driver/Src/stm32f4xx_hal_dma_ex.c ****       
 110              		.loc 1 127 7 is_stmt 1 view .LVU28
 127:Drivers/STM32F4xx_HAL_Driver/Src/stm32f4xx_hal_dma_ex.c ****       
 111              		.loc 1 127 11 is_stmt 0 view .LVU29
 112 0048 0468     		ldr	r4, [r0]
 127:Drivers/STM32F4xx_HAL_Driver/Src/stm32f4xx_hal_dma_ex.c ****       
 113              		.loc 1 127 28 view .LVU30
 114 004a 2361     		str	r3, [r4, #16]
 130:Drivers/STM32F4xx_HAL_Driver/Src/stm32f4xx_hal_dma_ex.c ****       
 115              		.loc 1 130 7 is_stmt 1 view .LVU31
 116              	.LVL9:
 117              	.LBB4:
 118              	.LBI4:
 143:Drivers/STM32F4xx_HAL_Driver/Src/stm32f4xx_hal_dma_ex.c **** 
 144:Drivers/STM32F4xx_HAL_Driver/Src/stm32f4xx_hal_dma_ex.c **** /**
 145:Drivers/STM32F4xx_HAL_Driver/Src/stm32f4xx_hal_dma_ex.c ****   * @brief  Starts the multi_buffer DMA Transfer with interrupt enabled.
 146:Drivers/STM32F4xx_HAL_Driver/Src/stm32f4xx_hal_dma_ex.c ****   * @param  hdma       pointer to a DMA_HandleTypeDef structure that contains
 147:Drivers/STM32F4xx_HAL_Driver/Src/stm32f4xx_hal_dma_ex.c ****   *                     the configuration information for the specified DMA Stream.  
 148:Drivers/STM32F4xx_HAL_Driver/Src/stm32f4xx_hal_dma_ex.c ****   * @param  SrcAddress The source memory Buffer address
 149:Drivers/STM32F4xx_HAL_Driver/Src/stm32f4xx_hal_dma_ex.c ****   * @param  DstAddress The destination memory Buffer address
 150:Drivers/STM32F4xx_HAL_Driver/Src/stm32f4xx_hal_dma_ex.c ****   * @param  SecondMemAddress The second memory Buffer address in case of multi buffer Transfer  
 151:Drivers/STM32F4xx_HAL_Driver/Src/stm32f4xx_hal_dma_ex.c ****   * @param  DataLength The length of data to be transferred from source to destination
 152:Drivers/STM32F4xx_HAL_Driver/Src/stm32f4xx_hal_dma_ex.c ****   * @retval HAL status
ARM GAS  C:\Users\maari\AppData\Local\Temp\ccWaE7UA.s 			page 6


 153:Drivers/STM32F4xx_HAL_Driver/Src/stm32f4xx_hal_dma_ex.c ****   */
 154:Drivers/STM32F4xx_HAL_Driver/Src/stm32f4xx_hal_dma_ex.c **** HAL_StatusTypeDef HAL_DMAEx_MultiBufferStart_IT(DMA_HandleTypeDef *hdma, uint32_t SrcAddress, uint3
 155:Drivers/STM32F4xx_HAL_Driver/Src/stm32f4xx_hal_dma_ex.c **** {
 156:Drivers/STM32F4xx_HAL_Driver/Src/stm32f4xx_hal_dma_ex.c ****   HAL_StatusTypeDef status = HAL_OK;
 157:Drivers/STM32F4xx_HAL_Driver/Src/stm32f4xx_hal_dma_ex.c ****   
 158:Drivers/STM32F4xx_HAL_Driver/Src/stm32f4xx_hal_dma_ex.c ****   /* Check the parameters */
 159:Drivers/STM32F4xx_HAL_Driver/Src/stm32f4xx_hal_dma_ex.c ****   assert_param(IS_DMA_BUFFER_SIZE(DataLength));
 160:Drivers/STM32F4xx_HAL_Driver/Src/stm32f4xx_hal_dma_ex.c ****   
 161:Drivers/STM32F4xx_HAL_Driver/Src/stm32f4xx_hal_dma_ex.c ****   /* Memory-to-memory transfer not supported in double buffering mode */
 162:Drivers/STM32F4xx_HAL_Driver/Src/stm32f4xx_hal_dma_ex.c ****   if (hdma->Init.Direction == DMA_MEMORY_TO_MEMORY)
 163:Drivers/STM32F4xx_HAL_Driver/Src/stm32f4xx_hal_dma_ex.c ****   {
 164:Drivers/STM32F4xx_HAL_Driver/Src/stm32f4xx_hal_dma_ex.c ****     hdma->ErrorCode = HAL_DMA_ERROR_NOT_SUPPORTED;
 165:Drivers/STM32F4xx_HAL_Driver/Src/stm32f4xx_hal_dma_ex.c ****     return HAL_ERROR;
 166:Drivers/STM32F4xx_HAL_Driver/Src/stm32f4xx_hal_dma_ex.c ****   }
 167:Drivers/STM32F4xx_HAL_Driver/Src/stm32f4xx_hal_dma_ex.c ****   
 168:Drivers/STM32F4xx_HAL_Driver/Src/stm32f4xx_hal_dma_ex.c ****   /* Check callback functions */
 169:Drivers/STM32F4xx_HAL_Driver/Src/stm32f4xx_hal_dma_ex.c ****   if ((NULL == hdma->XferCpltCallback) || (NULL == hdma->XferM1CpltCallback) || (NULL == hdma->Xfer
 170:Drivers/STM32F4xx_HAL_Driver/Src/stm32f4xx_hal_dma_ex.c ****   {
 171:Drivers/STM32F4xx_HAL_Driver/Src/stm32f4xx_hal_dma_ex.c ****     hdma->ErrorCode = HAL_DMA_ERROR_PARAM;
 172:Drivers/STM32F4xx_HAL_Driver/Src/stm32f4xx_hal_dma_ex.c ****     return HAL_ERROR;
 173:Drivers/STM32F4xx_HAL_Driver/Src/stm32f4xx_hal_dma_ex.c ****   }
 174:Drivers/STM32F4xx_HAL_Driver/Src/stm32f4xx_hal_dma_ex.c ****   
 175:Drivers/STM32F4xx_HAL_Driver/Src/stm32f4xx_hal_dma_ex.c ****   /* Process locked */
 176:Drivers/STM32F4xx_HAL_Driver/Src/stm32f4xx_hal_dma_ex.c ****   __HAL_LOCK(hdma);
 177:Drivers/STM32F4xx_HAL_Driver/Src/stm32f4xx_hal_dma_ex.c ****   
 178:Drivers/STM32F4xx_HAL_Driver/Src/stm32f4xx_hal_dma_ex.c ****   if(HAL_DMA_STATE_READY == hdma->State)
 179:Drivers/STM32F4xx_HAL_Driver/Src/stm32f4xx_hal_dma_ex.c ****   {
 180:Drivers/STM32F4xx_HAL_Driver/Src/stm32f4xx_hal_dma_ex.c ****     /* Change DMA peripheral state */
 181:Drivers/STM32F4xx_HAL_Driver/Src/stm32f4xx_hal_dma_ex.c ****     hdma->State = HAL_DMA_STATE_BUSY;
 182:Drivers/STM32F4xx_HAL_Driver/Src/stm32f4xx_hal_dma_ex.c ****     
 183:Drivers/STM32F4xx_HAL_Driver/Src/stm32f4xx_hal_dma_ex.c ****     /* Initialize the error code */
 184:Drivers/STM32F4xx_HAL_Driver/Src/stm32f4xx_hal_dma_ex.c ****     hdma->ErrorCode = HAL_DMA_ERROR_NONE;
 185:Drivers/STM32F4xx_HAL_Driver/Src/stm32f4xx_hal_dma_ex.c ****     
 186:Drivers/STM32F4xx_HAL_Driver/Src/stm32f4xx_hal_dma_ex.c ****     /* Enable the Double buffer mode */
 187:Drivers/STM32F4xx_HAL_Driver/Src/stm32f4xx_hal_dma_ex.c ****     hdma->Instance->CR |= (uint32_t)DMA_SxCR_DBM;
 188:Drivers/STM32F4xx_HAL_Driver/Src/stm32f4xx_hal_dma_ex.c ****     
 189:Drivers/STM32F4xx_HAL_Driver/Src/stm32f4xx_hal_dma_ex.c ****     /* Configure DMA Stream destination address */
 190:Drivers/STM32F4xx_HAL_Driver/Src/stm32f4xx_hal_dma_ex.c ****     hdma->Instance->M1AR = SecondMemAddress;
 191:Drivers/STM32F4xx_HAL_Driver/Src/stm32f4xx_hal_dma_ex.c ****     
 192:Drivers/STM32F4xx_HAL_Driver/Src/stm32f4xx_hal_dma_ex.c ****     /* Configure the source, destination address and the data length */
 193:Drivers/STM32F4xx_HAL_Driver/Src/stm32f4xx_hal_dma_ex.c ****     DMA_MultiBufferSetConfig(hdma, SrcAddress, DstAddress, DataLength); 
 194:Drivers/STM32F4xx_HAL_Driver/Src/stm32f4xx_hal_dma_ex.c ****     
 195:Drivers/STM32F4xx_HAL_Driver/Src/stm32f4xx_hal_dma_ex.c ****     /* Clear all flags */
 196:Drivers/STM32F4xx_HAL_Driver/Src/stm32f4xx_hal_dma_ex.c ****     __HAL_DMA_CLEAR_FLAG (hdma, __HAL_DMA_GET_TC_FLAG_INDEX(hdma));
 197:Drivers/STM32F4xx_HAL_Driver/Src/stm32f4xx_hal_dma_ex.c ****     __HAL_DMA_CLEAR_FLAG (hdma, __HAL_DMA_GET_HT_FLAG_INDEX(hdma));
 198:Drivers/STM32F4xx_HAL_Driver/Src/stm32f4xx_hal_dma_ex.c ****     __HAL_DMA_CLEAR_FLAG (hdma, __HAL_DMA_GET_TE_FLAG_INDEX(hdma));
 199:Drivers/STM32F4xx_HAL_Driver/Src/stm32f4xx_hal_dma_ex.c ****     __HAL_DMA_CLEAR_FLAG (hdma, __HAL_DMA_GET_DME_FLAG_INDEX(hdma));
 200:Drivers/STM32F4xx_HAL_Driver/Src/stm32f4xx_hal_dma_ex.c ****     __HAL_DMA_CLEAR_FLAG (hdma, __HAL_DMA_GET_FE_FLAG_INDEX(hdma));
 201:Drivers/STM32F4xx_HAL_Driver/Src/stm32f4xx_hal_dma_ex.c **** 
 202:Drivers/STM32F4xx_HAL_Driver/Src/stm32f4xx_hal_dma_ex.c ****     /* Enable Common interrupts*/
 203:Drivers/STM32F4xx_HAL_Driver/Src/stm32f4xx_hal_dma_ex.c ****     hdma->Instance->CR  |= DMA_IT_TC | DMA_IT_TE | DMA_IT_DME;
 204:Drivers/STM32F4xx_HAL_Driver/Src/stm32f4xx_hal_dma_ex.c ****     hdma->Instance->FCR |= DMA_IT_FE;
 205:Drivers/STM32F4xx_HAL_Driver/Src/stm32f4xx_hal_dma_ex.c ****     
 206:Drivers/STM32F4xx_HAL_Driver/Src/stm32f4xx_hal_dma_ex.c ****     if((hdma->XferHalfCpltCallback != NULL) || (hdma->XferM1HalfCpltCallback != NULL))
 207:Drivers/STM32F4xx_HAL_Driver/Src/stm32f4xx_hal_dma_ex.c ****     {
 208:Drivers/STM32F4xx_HAL_Driver/Src/stm32f4xx_hal_dma_ex.c ****       hdma->Instance->CR  |= DMA_IT_HT;
 209:Drivers/STM32F4xx_HAL_Driver/Src/stm32f4xx_hal_dma_ex.c ****     }
ARM GAS  C:\Users\maari\AppData\Local\Temp\ccWaE7UA.s 			page 7


 210:Drivers/STM32F4xx_HAL_Driver/Src/stm32f4xx_hal_dma_ex.c ****     
 211:Drivers/STM32F4xx_HAL_Driver/Src/stm32f4xx_hal_dma_ex.c ****     /* Enable the peripheral */
 212:Drivers/STM32F4xx_HAL_Driver/Src/stm32f4xx_hal_dma_ex.c ****     __HAL_DMA_ENABLE(hdma); 
 213:Drivers/STM32F4xx_HAL_Driver/Src/stm32f4xx_hal_dma_ex.c ****   }
 214:Drivers/STM32F4xx_HAL_Driver/Src/stm32f4xx_hal_dma_ex.c ****   else
 215:Drivers/STM32F4xx_HAL_Driver/Src/stm32f4xx_hal_dma_ex.c ****   {     
 216:Drivers/STM32F4xx_HAL_Driver/Src/stm32f4xx_hal_dma_ex.c ****     /* Process unlocked */
 217:Drivers/STM32F4xx_HAL_Driver/Src/stm32f4xx_hal_dma_ex.c ****     __HAL_UNLOCK(hdma);	  
 218:Drivers/STM32F4xx_HAL_Driver/Src/stm32f4xx_hal_dma_ex.c ****     
 219:Drivers/STM32F4xx_HAL_Driver/Src/stm32f4xx_hal_dma_ex.c ****     /* Return error status */
 220:Drivers/STM32F4xx_HAL_Driver/Src/stm32f4xx_hal_dma_ex.c ****     status = HAL_BUSY;
 221:Drivers/STM32F4xx_HAL_Driver/Src/stm32f4xx_hal_dma_ex.c ****   }  
 222:Drivers/STM32F4xx_HAL_Driver/Src/stm32f4xx_hal_dma_ex.c ****   return status; 
 223:Drivers/STM32F4xx_HAL_Driver/Src/stm32f4xx_hal_dma_ex.c **** }
 224:Drivers/STM32F4xx_HAL_Driver/Src/stm32f4xx_hal_dma_ex.c **** 
 225:Drivers/STM32F4xx_HAL_Driver/Src/stm32f4xx_hal_dma_ex.c **** /**
 226:Drivers/STM32F4xx_HAL_Driver/Src/stm32f4xx_hal_dma_ex.c ****   * @brief  Change the memory0 or memory1 address on the fly.
 227:Drivers/STM32F4xx_HAL_Driver/Src/stm32f4xx_hal_dma_ex.c ****   * @param  hdma       pointer to a DMA_HandleTypeDef structure that contains
 228:Drivers/STM32F4xx_HAL_Driver/Src/stm32f4xx_hal_dma_ex.c ****   *                     the configuration information for the specified DMA Stream.  
 229:Drivers/STM32F4xx_HAL_Driver/Src/stm32f4xx_hal_dma_ex.c ****   * @param  Address    The new address
 230:Drivers/STM32F4xx_HAL_Driver/Src/stm32f4xx_hal_dma_ex.c ****   * @param  memory     the memory to be changed, This parameter can be one of 
 231:Drivers/STM32F4xx_HAL_Driver/Src/stm32f4xx_hal_dma_ex.c ****   *                     the following values:
 232:Drivers/STM32F4xx_HAL_Driver/Src/stm32f4xx_hal_dma_ex.c ****   *                      MEMORY0 /
 233:Drivers/STM32F4xx_HAL_Driver/Src/stm32f4xx_hal_dma_ex.c ****   *                      MEMORY1
 234:Drivers/STM32F4xx_HAL_Driver/Src/stm32f4xx_hal_dma_ex.c ****   * @note   The MEMORY0 address can be changed only when the current transfer use
 235:Drivers/STM32F4xx_HAL_Driver/Src/stm32f4xx_hal_dma_ex.c ****   *         MEMORY1 and the MEMORY1 address can be changed only when the current 
 236:Drivers/STM32F4xx_HAL_Driver/Src/stm32f4xx_hal_dma_ex.c ****   *         transfer use MEMORY0.
 237:Drivers/STM32F4xx_HAL_Driver/Src/stm32f4xx_hal_dma_ex.c ****   * @retval HAL status
 238:Drivers/STM32F4xx_HAL_Driver/Src/stm32f4xx_hal_dma_ex.c ****   */
 239:Drivers/STM32F4xx_HAL_Driver/Src/stm32f4xx_hal_dma_ex.c **** HAL_StatusTypeDef HAL_DMAEx_ChangeMemory(DMA_HandleTypeDef *hdma, uint32_t Address, HAL_DMA_MemoryT
 240:Drivers/STM32F4xx_HAL_Driver/Src/stm32f4xx_hal_dma_ex.c **** {
 241:Drivers/STM32F4xx_HAL_Driver/Src/stm32f4xx_hal_dma_ex.c ****   if(memory == MEMORY0)
 242:Drivers/STM32F4xx_HAL_Driver/Src/stm32f4xx_hal_dma_ex.c ****   {
 243:Drivers/STM32F4xx_HAL_Driver/Src/stm32f4xx_hal_dma_ex.c ****     /* change the memory0 address */
 244:Drivers/STM32F4xx_HAL_Driver/Src/stm32f4xx_hal_dma_ex.c ****     hdma->Instance->M0AR = Address;
 245:Drivers/STM32F4xx_HAL_Driver/Src/stm32f4xx_hal_dma_ex.c ****   }
 246:Drivers/STM32F4xx_HAL_Driver/Src/stm32f4xx_hal_dma_ex.c ****   else
 247:Drivers/STM32F4xx_HAL_Driver/Src/stm32f4xx_hal_dma_ex.c ****   {
 248:Drivers/STM32F4xx_HAL_Driver/Src/stm32f4xx_hal_dma_ex.c ****     /* change the memory1 address */
 249:Drivers/STM32F4xx_HAL_Driver/Src/stm32f4xx_hal_dma_ex.c ****     hdma->Instance->M1AR = Address;
 250:Drivers/STM32F4xx_HAL_Driver/Src/stm32f4xx_hal_dma_ex.c ****   }
 251:Drivers/STM32F4xx_HAL_Driver/Src/stm32f4xx_hal_dma_ex.c **** 
 252:Drivers/STM32F4xx_HAL_Driver/Src/stm32f4xx_hal_dma_ex.c ****   return HAL_OK;
 253:Drivers/STM32F4xx_HAL_Driver/Src/stm32f4xx_hal_dma_ex.c **** }
 254:Drivers/STM32F4xx_HAL_Driver/Src/stm32f4xx_hal_dma_ex.c **** 
 255:Drivers/STM32F4xx_HAL_Driver/Src/stm32f4xx_hal_dma_ex.c **** /**
 256:Drivers/STM32F4xx_HAL_Driver/Src/stm32f4xx_hal_dma_ex.c ****   * @}
 257:Drivers/STM32F4xx_HAL_Driver/Src/stm32f4xx_hal_dma_ex.c ****   */
 258:Drivers/STM32F4xx_HAL_Driver/Src/stm32f4xx_hal_dma_ex.c **** 
 259:Drivers/STM32F4xx_HAL_Driver/Src/stm32f4xx_hal_dma_ex.c **** /**
 260:Drivers/STM32F4xx_HAL_Driver/Src/stm32f4xx_hal_dma_ex.c ****   * @}
 261:Drivers/STM32F4xx_HAL_Driver/Src/stm32f4xx_hal_dma_ex.c ****   */
 262:Drivers/STM32F4xx_HAL_Driver/Src/stm32f4xx_hal_dma_ex.c **** 
 263:Drivers/STM32F4xx_HAL_Driver/Src/stm32f4xx_hal_dma_ex.c **** /** @addtogroup DMAEx_Private_Functions
 264:Drivers/STM32F4xx_HAL_Driver/Src/stm32f4xx_hal_dma_ex.c ****   * @{
 265:Drivers/STM32F4xx_HAL_Driver/Src/stm32f4xx_hal_dma_ex.c ****   */
 266:Drivers/STM32F4xx_HAL_Driver/Src/stm32f4xx_hal_dma_ex.c **** 
ARM GAS  C:\Users\maari\AppData\Local\Temp\ccWaE7UA.s 			page 8


 267:Drivers/STM32F4xx_HAL_Driver/Src/stm32f4xx_hal_dma_ex.c **** /**
 268:Drivers/STM32F4xx_HAL_Driver/Src/stm32f4xx_hal_dma_ex.c ****   * @brief  Set the DMA Transfer parameter.
 269:Drivers/STM32F4xx_HAL_Driver/Src/stm32f4xx_hal_dma_ex.c ****   * @param  hdma       pointer to a DMA_HandleTypeDef structure that contains
 270:Drivers/STM32F4xx_HAL_Driver/Src/stm32f4xx_hal_dma_ex.c ****   *                     the configuration information for the specified DMA Stream.  
 271:Drivers/STM32F4xx_HAL_Driver/Src/stm32f4xx_hal_dma_ex.c ****   * @param  SrcAddress The source memory Buffer address
 272:Drivers/STM32F4xx_HAL_Driver/Src/stm32f4xx_hal_dma_ex.c ****   * @param  DstAddress The destination memory Buffer address
 273:Drivers/STM32F4xx_HAL_Driver/Src/stm32f4xx_hal_dma_ex.c ****   * @param  DataLength The length of data to be transferred from source to destination
 274:Drivers/STM32F4xx_HAL_Driver/Src/stm32f4xx_hal_dma_ex.c ****   * @retval HAL status
 275:Drivers/STM32F4xx_HAL_Driver/Src/stm32f4xx_hal_dma_ex.c ****   */
 276:Drivers/STM32F4xx_HAL_Driver/Src/stm32f4xx_hal_dma_ex.c **** static void DMA_MultiBufferSetConfig(DMA_HandleTypeDef *hdma, uint32_t SrcAddress, uint32_t DstAddr
 119              		.loc 1 276 13 view .LVU32
 120              	.LBB5:
 277:Drivers/STM32F4xx_HAL_Driver/Src/stm32f4xx_hal_dma_ex.c **** {  
 278:Drivers/STM32F4xx_HAL_Driver/Src/stm32f4xx_hal_dma_ex.c ****   /* Configure DMA Stream data length */
 279:Drivers/STM32F4xx_HAL_Driver/Src/stm32f4xx_hal_dma_ex.c ****   hdma->Instance->NDTR = DataLength;
 121              		.loc 1 279 3 view .LVU33
 122              		.loc 1 279 7 is_stmt 0 view .LVU34
 123 004c 0368     		ldr	r3, [r0]
 124              	.LVL10:
 125              		.loc 1 279 24 view .LVU35
 126 004e 029C     		ldr	r4, [sp, #8]
 127              	.LVL11:
 128              		.loc 1 279 24 view .LVU36
 129 0050 5C60     		str	r4, [r3, #4]
 280:Drivers/STM32F4xx_HAL_Driver/Src/stm32f4xx_hal_dma_ex.c ****   
 281:Drivers/STM32F4xx_HAL_Driver/Src/stm32f4xx_hal_dma_ex.c ****   /* Peripheral to Memory */
 282:Drivers/STM32F4xx_HAL_Driver/Src/stm32f4xx_hal_dma_ex.c ****   if((hdma->Init.Direction) == DMA_MEMORY_TO_PERIPH)
 130              		.loc 1 282 3 is_stmt 1 view .LVU37
 131              		.loc 1 282 5 is_stmt 0 view .LVU38
 132 0052 8368     		ldr	r3, [r0, #8]
 133 0054 402B     		cmp	r3, #64
 134 0056 0AD0     		beq	.L11
 283:Drivers/STM32F4xx_HAL_Driver/Src/stm32f4xx_hal_dma_ex.c ****   {   
 284:Drivers/STM32F4xx_HAL_Driver/Src/stm32f4xx_hal_dma_ex.c ****     /* Configure DMA Stream destination address */
 285:Drivers/STM32F4xx_HAL_Driver/Src/stm32f4xx_hal_dma_ex.c ****     hdma->Instance->PAR = DstAddress;
 286:Drivers/STM32F4xx_HAL_Driver/Src/stm32f4xx_hal_dma_ex.c ****     
 287:Drivers/STM32F4xx_HAL_Driver/Src/stm32f4xx_hal_dma_ex.c ****     /* Configure DMA Stream source address */
 288:Drivers/STM32F4xx_HAL_Driver/Src/stm32f4xx_hal_dma_ex.c ****     hdma->Instance->M0AR = SrcAddress;
 289:Drivers/STM32F4xx_HAL_Driver/Src/stm32f4xx_hal_dma_ex.c ****   }
 290:Drivers/STM32F4xx_HAL_Driver/Src/stm32f4xx_hal_dma_ex.c ****   /* Memory to Peripheral */
 291:Drivers/STM32F4xx_HAL_Driver/Src/stm32f4xx_hal_dma_ex.c ****   else
 292:Drivers/STM32F4xx_HAL_Driver/Src/stm32f4xx_hal_dma_ex.c ****   {
 293:Drivers/STM32F4xx_HAL_Driver/Src/stm32f4xx_hal_dma_ex.c ****     /* Configure DMA Stream source address */
 294:Drivers/STM32F4xx_HAL_Driver/Src/stm32f4xx_hal_dma_ex.c ****     hdma->Instance->PAR = SrcAddress;
 135              		.loc 1 294 5 is_stmt 1 view .LVU39
 136              		.loc 1 294 9 is_stmt 0 view .LVU40
 137 0058 0368     		ldr	r3, [r0]
 138              		.loc 1 294 25 view .LVU41
 139 005a 9960     		str	r1, [r3, #8]
 295:Drivers/STM32F4xx_HAL_Driver/Src/stm32f4xx_hal_dma_ex.c ****     
 296:Drivers/STM32F4xx_HAL_Driver/Src/stm32f4xx_hal_dma_ex.c ****     /* Configure DMA Stream destination address */
 297:Drivers/STM32F4xx_HAL_Driver/Src/stm32f4xx_hal_dma_ex.c ****     hdma->Instance->M0AR = DstAddress;
 140              		.loc 1 297 5 is_stmt 1 view .LVU42
 141              		.loc 1 297 9 is_stmt 0 view .LVU43
 142 005c 0368     		ldr	r3, [r0]
 143              		.loc 1 297 26 view .LVU44
 144 005e DA60     		str	r2, [r3, #12]
ARM GAS  C:\Users\maari\AppData\Local\Temp\ccWaE7UA.s 			page 9


 145              	.L5:
 146              	.LVL12:
 147              		.loc 1 297 26 view .LVU45
 148              	.LBE5:
 149              	.LBE4:
 133:Drivers/STM32F4xx_HAL_Driver/Src/stm32f4xx_hal_dma_ex.c ****     }
 150              		.loc 1 133 7 is_stmt 1 view .LVU46
 151 0060 0268     		ldr	r2, [r0]
 152              	.LVL13:
 133:Drivers/STM32F4xx_HAL_Driver/Src/stm32f4xx_hal_dma_ex.c ****     }
 153              		.loc 1 133 7 is_stmt 0 view .LVU47
 154 0062 1368     		ldr	r3, [r2]
 155 0064 43F00103 		orr	r3, r3, #1
 156 0068 1360     		str	r3, [r2]
 102:Drivers/STM32F4xx_HAL_Driver/Src/stm32f4xx_hal_dma_ex.c ****   
 157              		.loc 1 102 21 view .LVU48
 158 006a 0020     		movs	r0, #0
 159              	.LVL14:
 102:Drivers/STM32F4xx_HAL_Driver/Src/stm32f4xx_hal_dma_ex.c ****   
 160              		.loc 1 102 21 view .LVU49
 161 006c DDE7     		b	.L3
 162              	.LVL15:
 163              	.L11:
 164              	.LBB7:
 165              	.LBB6:
 285:Drivers/STM32F4xx_HAL_Driver/Src/stm32f4xx_hal_dma_ex.c ****     
 166              		.loc 1 285 5 is_stmt 1 view .LVU50
 285:Drivers/STM32F4xx_HAL_Driver/Src/stm32f4xx_hal_dma_ex.c ****     
 167              		.loc 1 285 9 is_stmt 0 view .LVU51
 168 006e 0368     		ldr	r3, [r0]
 285:Drivers/STM32F4xx_HAL_Driver/Src/stm32f4xx_hal_dma_ex.c ****     
 169              		.loc 1 285 25 view .LVU52
 170 0070 9A60     		str	r2, [r3, #8]
 288:Drivers/STM32F4xx_HAL_Driver/Src/stm32f4xx_hal_dma_ex.c ****   }
 171              		.loc 1 288 5 is_stmt 1 view .LVU53
 288:Drivers/STM32F4xx_HAL_Driver/Src/stm32f4xx_hal_dma_ex.c ****   }
 172              		.loc 1 288 9 is_stmt 0 view .LVU54
 173 0072 0368     		ldr	r3, [r0]
 288:Drivers/STM32F4xx_HAL_Driver/Src/stm32f4xx_hal_dma_ex.c ****   }
 174              		.loc 1 288 26 view .LVU55
 175 0074 D960     		str	r1, [r3, #12]
 176 0076 F3E7     		b	.L5
 177              	.LVL16:
 178              	.L6:
 288:Drivers/STM32F4xx_HAL_Driver/Src/stm32f4xx_hal_dma_ex.c ****   }
 179              		.loc 1 288 26 view .LVU56
 180              	.LBE6:
 181              	.LBE7:
 116:Drivers/STM32F4xx_HAL_Driver/Src/stm32f4xx_hal_dma_ex.c ****     
 182              		.loc 1 116 5 discriminator 1 view .LVU57
 183 0078 0220     		movs	r0, #2
 184              	.LVL17:
 116:Drivers/STM32F4xx_HAL_Driver/Src/stm32f4xx_hal_dma_ex.c ****     
 185              		.loc 1 116 5 discriminator 1 view .LVU58
 186 007a D6E7     		b	.L3
 187              		.cfi_endproc
 188              	.LFE134:
ARM GAS  C:\Users\maari\AppData\Local\Temp\ccWaE7UA.s 			page 10


 190              		.section	.text.HAL_DMAEx_MultiBufferStart_IT,"ax",%progbits
 191              		.align	1
 192              		.global	HAL_DMAEx_MultiBufferStart_IT
 193              		.syntax unified
 194              		.thumb
 195              		.thumb_func
 197              	HAL_DMAEx_MultiBufferStart_IT:
 198              	.LVL18:
 199              	.LFB135:
 155:Drivers/STM32F4xx_HAL_Driver/Src/stm32f4xx_hal_dma_ex.c ****   HAL_StatusTypeDef status = HAL_OK;
 200              		.loc 1 155 1 is_stmt 1 view -0
 201              		.cfi_startproc
 202              		@ args = 4, pretend = 0, frame = 0
 203              		@ frame_needed = 0, uses_anonymous_args = 0
 204              		@ link register save eliminated.
 155:Drivers/STM32F4xx_HAL_Driver/Src/stm32f4xx_hal_dma_ex.c ****   HAL_StatusTypeDef status = HAL_OK;
 205              		.loc 1 155 1 is_stmt 0 view .LVU60
 206 0000 30B4     		push	{r4, r5}
 207              	.LCFI3:
 208              		.cfi_def_cfa_offset 8
 209              		.cfi_offset 4, -8
 210              		.cfi_offset 5, -4
 156:Drivers/STM32F4xx_HAL_Driver/Src/stm32f4xx_hal_dma_ex.c ****   
 211              		.loc 1 156 3 is_stmt 1 view .LVU61
 212              	.LVL19:
 159:Drivers/STM32F4xx_HAL_Driver/Src/stm32f4xx_hal_dma_ex.c ****   
 213              		.loc 1 159 3 view .LVU62
 162:Drivers/STM32F4xx_HAL_Driver/Src/stm32f4xx_hal_dma_ex.c ****   {
 214              		.loc 1 162 3 view .LVU63
 162:Drivers/STM32F4xx_HAL_Driver/Src/stm32f4xx_hal_dma_ex.c ****   {
 215              		.loc 1 162 6 is_stmt 0 view .LVU64
 216 0002 8468     		ldr	r4, [r0, #8]
 217 0004 802C     		cmp	r4, #128
 218 0006 1BD0     		beq	.L124
 169:Drivers/STM32F4xx_HAL_Driver/Src/stm32f4xx_hal_dma_ex.c ****   {
 219              		.loc 1 169 3 is_stmt 1 view .LVU65
 169:Drivers/STM32F4xx_HAL_Driver/Src/stm32f4xx_hal_dma_ex.c ****   {
 220              		.loc 1 169 6 is_stmt 0 view .LVU66
 221 0008 C46B     		ldr	r4, [r0, #60]
 222 000a F4B1     		cbz	r4, .L15
 169:Drivers/STM32F4xx_HAL_Driver/Src/stm32f4xx_hal_dma_ex.c ****   {
 223              		.loc 1 169 40 discriminator 1 view .LVU67
 224 000c 446C     		ldr	r4, [r0, #68]
 225 000e E4B1     		cbz	r4, .L15
 169:Drivers/STM32F4xx_HAL_Driver/Src/stm32f4xx_hal_dma_ex.c ****   {
 226              		.loc 1 169 78 discriminator 2 view .LVU68
 227 0010 C46C     		ldr	r4, [r0, #76]
 228 0012 D4B1     		cbz	r4, .L15
 176:Drivers/STM32F4xx_HAL_Driver/Src/stm32f4xx_hal_dma_ex.c ****   
 229              		.loc 1 176 3 is_stmt 1 view .LVU69
 176:Drivers/STM32F4xx_HAL_Driver/Src/stm32f4xx_hal_dma_ex.c ****   
 230              		.loc 1 176 3 view .LVU70
 231 0014 90F834C0 		ldrb	ip, [r0, #52]	@ zero_extendqisi2
 232 0018 BCF1010F 		cmp	ip, #1
 233 001c 00F03182 		beq	.L62
 176:Drivers/STM32F4xx_HAL_Driver/Src/stm32f4xx_hal_dma_ex.c ****   
 234              		.loc 1 176 3 discriminator 2 view .LVU71
ARM GAS  C:\Users\maari\AppData\Local\Temp\ccWaE7UA.s 			page 11


 235 0020 4FF0010C 		mov	ip, #1
 236 0024 80F834C0 		strb	ip, [r0, #52]
 176:Drivers/STM32F4xx_HAL_Driver/Src/stm32f4xx_hal_dma_ex.c ****   
 237              		.loc 1 176 3 discriminator 2 view .LVU72
 178:Drivers/STM32F4xx_HAL_Driver/Src/stm32f4xx_hal_dma_ex.c ****   {
 238              		.loc 1 178 3 view .LVU73
 178:Drivers/STM32F4xx_HAL_Driver/Src/stm32f4xx_hal_dma_ex.c ****   {
 239              		.loc 1 178 33 is_stmt 0 view .LVU74
 240 0028 90F835C0 		ldrb	ip, [r0, #53]	@ zero_extendqisi2
 241 002c 5FFA8CFC 		uxtb	ip, ip
 178:Drivers/STM32F4xx_HAL_Driver/Src/stm32f4xx_hal_dma_ex.c ****   {
 242              		.loc 1 178 5 view .LVU75
 243 0030 BCF1010F 		cmp	ip, #1
 244 0034 0ED0     		beq	.L125
 217:Drivers/STM32F4xx_HAL_Driver/Src/stm32f4xx_hal_dma_ex.c ****     
 245              		.loc 1 217 5 is_stmt 1 view .LVU76
 217:Drivers/STM32F4xx_HAL_Driver/Src/stm32f4xx_hal_dma_ex.c ****     
 246              		.loc 1 217 5 view .LVU77
 247 0036 0023     		movs	r3, #0
 248              	.LVL20:
 217:Drivers/STM32F4xx_HAL_Driver/Src/stm32f4xx_hal_dma_ex.c ****     
 249              		.loc 1 217 5 is_stmt 0 view .LVU78
 250 0038 80F83430 		strb	r3, [r0, #52]
 217:Drivers/STM32F4xx_HAL_Driver/Src/stm32f4xx_hal_dma_ex.c ****     
 251              		.loc 1 217 5 is_stmt 1 view .LVU79
 220:Drivers/STM32F4xx_HAL_Driver/Src/stm32f4xx_hal_dma_ex.c ****   }  
 252              		.loc 1 220 5 view .LVU80
 253              	.LVL21:
 220:Drivers/STM32F4xx_HAL_Driver/Src/stm32f4xx_hal_dma_ex.c ****   }  
 254              		.loc 1 220 12 is_stmt 0 view .LVU81
 255 003c 0220     		movs	r0, #2
 256              	.LVL22:
 220:Drivers/STM32F4xx_HAL_Driver/Src/stm32f4xx_hal_dma_ex.c ****   }  
 257              		.loc 1 220 12 view .LVU82
 258 003e 07E0     		b	.L14
 259              	.LVL23:
 260              	.L124:
 164:Drivers/STM32F4xx_HAL_Driver/Src/stm32f4xx_hal_dma_ex.c ****     return HAL_ERROR;
 261              		.loc 1 164 5 is_stmt 1 view .LVU83
 164:Drivers/STM32F4xx_HAL_Driver/Src/stm32f4xx_hal_dma_ex.c ****     return HAL_ERROR;
 262              		.loc 1 164 21 is_stmt 0 view .LVU84
 263 0040 4FF48073 		mov	r3, #256
 264              	.LVL24:
 164:Drivers/STM32F4xx_HAL_Driver/Src/stm32f4xx_hal_dma_ex.c ****     return HAL_ERROR;
 265              		.loc 1 164 21 view .LVU85
 266 0044 4365     		str	r3, [r0, #84]
 165:Drivers/STM32F4xx_HAL_Driver/Src/stm32f4xx_hal_dma_ex.c ****   }
 267              		.loc 1 165 5 is_stmt 1 view .LVU86
 165:Drivers/STM32F4xx_HAL_Driver/Src/stm32f4xx_hal_dma_ex.c ****   }
 268              		.loc 1 165 12 is_stmt 0 view .LVU87
 269 0046 0120     		movs	r0, #1
 270              	.LVL25:
 165:Drivers/STM32F4xx_HAL_Driver/Src/stm32f4xx_hal_dma_ex.c ****   }
 271              		.loc 1 165 12 view .LVU88
 272 0048 02E0     		b	.L14
 273              	.LVL26:
 274              	.L15:
ARM GAS  C:\Users\maari\AppData\Local\Temp\ccWaE7UA.s 			page 12


 171:Drivers/STM32F4xx_HAL_Driver/Src/stm32f4xx_hal_dma_ex.c ****     return HAL_ERROR;
 275              		.loc 1 171 5 is_stmt 1 view .LVU89
 171:Drivers/STM32F4xx_HAL_Driver/Src/stm32f4xx_hal_dma_ex.c ****     return HAL_ERROR;
 276              		.loc 1 171 21 is_stmt 0 view .LVU90
 277 004a 4023     		movs	r3, #64
 278              	.LVL27:
 171:Drivers/STM32F4xx_HAL_Driver/Src/stm32f4xx_hal_dma_ex.c ****     return HAL_ERROR;
 279              		.loc 1 171 21 view .LVU91
 280 004c 4365     		str	r3, [r0, #84]
 172:Drivers/STM32F4xx_HAL_Driver/Src/stm32f4xx_hal_dma_ex.c ****   }
 281              		.loc 1 172 5 is_stmt 1 view .LVU92
 172:Drivers/STM32F4xx_HAL_Driver/Src/stm32f4xx_hal_dma_ex.c ****   }
 282              		.loc 1 172 12 is_stmt 0 view .LVU93
 283 004e 0120     		movs	r0, #1
 284              	.LVL28:
 285              	.L14:
 223:Drivers/STM32F4xx_HAL_Driver/Src/stm32f4xx_hal_dma_ex.c **** 
 286              		.loc 1 223 1 view .LVU94
 287 0050 30BC     		pop	{r4, r5}
 288              	.LCFI4:
 289              		.cfi_remember_state
 290              		.cfi_restore 5
 291              		.cfi_restore 4
 292              		.cfi_def_cfa_offset 0
 293 0052 7047     		bx	lr
 294              	.LVL29:
 295              	.L125:
 296              	.LCFI5:
 297              		.cfi_restore_state
 181:Drivers/STM32F4xx_HAL_Driver/Src/stm32f4xx_hal_dma_ex.c ****     
 298              		.loc 1 181 5 is_stmt 1 view .LVU95
 181:Drivers/STM32F4xx_HAL_Driver/Src/stm32f4xx_hal_dma_ex.c ****     
 299              		.loc 1 181 17 is_stmt 0 view .LVU96
 300 0054 0224     		movs	r4, #2
 301 0056 80F83540 		strb	r4, [r0, #53]
 184:Drivers/STM32F4xx_HAL_Driver/Src/stm32f4xx_hal_dma_ex.c ****     
 302              		.loc 1 184 5 is_stmt 1 view .LVU97
 184:Drivers/STM32F4xx_HAL_Driver/Src/stm32f4xx_hal_dma_ex.c ****     
 303              		.loc 1 184 21 is_stmt 0 view .LVU98
 304 005a 0024     		movs	r4, #0
 305 005c 4465     		str	r4, [r0, #84]
 187:Drivers/STM32F4xx_HAL_Driver/Src/stm32f4xx_hal_dma_ex.c ****     
 306              		.loc 1 187 5 is_stmt 1 view .LVU99
 187:Drivers/STM32F4xx_HAL_Driver/Src/stm32f4xx_hal_dma_ex.c ****     
 307              		.loc 1 187 9 is_stmt 0 view .LVU100
 308 005e 0568     		ldr	r5, [r0]
 187:Drivers/STM32F4xx_HAL_Driver/Src/stm32f4xx_hal_dma_ex.c ****     
 309              		.loc 1 187 19 view .LVU101
 310 0060 2C68     		ldr	r4, [r5]
 187:Drivers/STM32F4xx_HAL_Driver/Src/stm32f4xx_hal_dma_ex.c ****     
 311              		.loc 1 187 24 view .LVU102
 312 0062 44F48024 		orr	r4, r4, #262144
 313 0066 2C60     		str	r4, [r5]
 190:Drivers/STM32F4xx_HAL_Driver/Src/stm32f4xx_hal_dma_ex.c ****     
 314              		.loc 1 190 5 is_stmt 1 view .LVU103
 190:Drivers/STM32F4xx_HAL_Driver/Src/stm32f4xx_hal_dma_ex.c ****     
 315              		.loc 1 190 9 is_stmt 0 view .LVU104
ARM GAS  C:\Users\maari\AppData\Local\Temp\ccWaE7UA.s 			page 13


 316 0068 0468     		ldr	r4, [r0]
 190:Drivers/STM32F4xx_HAL_Driver/Src/stm32f4xx_hal_dma_ex.c ****     
 317              		.loc 1 190 26 view .LVU105
 318 006a 2361     		str	r3, [r4, #16]
 193:Drivers/STM32F4xx_HAL_Driver/Src/stm32f4xx_hal_dma_ex.c ****     
 319              		.loc 1 193 5 is_stmt 1 view .LVU106
 320              	.LVL30:
 321              	.LBB10:
 322              	.LBI10:
 276:Drivers/STM32F4xx_HAL_Driver/Src/stm32f4xx_hal_dma_ex.c **** {  
 323              		.loc 1 276 13 view .LVU107
 324              	.LBB11:
 279:Drivers/STM32F4xx_HAL_Driver/Src/stm32f4xx_hal_dma_ex.c ****   
 325              		.loc 1 279 3 view .LVU108
 279:Drivers/STM32F4xx_HAL_Driver/Src/stm32f4xx_hal_dma_ex.c ****   
 326              		.loc 1 279 7 is_stmt 0 view .LVU109
 327 006c 0368     		ldr	r3, [r0]
 328              	.LVL31:
 279:Drivers/STM32F4xx_HAL_Driver/Src/stm32f4xx_hal_dma_ex.c ****   
 329              		.loc 1 279 24 view .LVU110
 330 006e 029C     		ldr	r4, [sp, #8]
 331              	.LVL32:
 279:Drivers/STM32F4xx_HAL_Driver/Src/stm32f4xx_hal_dma_ex.c ****   
 332              		.loc 1 279 24 view .LVU111
 333 0070 5C60     		str	r4, [r3, #4]
 282:Drivers/STM32F4xx_HAL_Driver/Src/stm32f4xx_hal_dma_ex.c ****   {   
 334              		.loc 1 282 3 is_stmt 1 view .LVU112
 282:Drivers/STM32F4xx_HAL_Driver/Src/stm32f4xx_hal_dma_ex.c ****   {   
 335              		.loc 1 282 5 is_stmt 0 view .LVU113
 336 0072 8368     		ldr	r3, [r0, #8]
 337 0074 402B     		cmp	r3, #64
 338 0076 15D0     		beq	.L126
 294:Drivers/STM32F4xx_HAL_Driver/Src/stm32f4xx_hal_dma_ex.c ****     
 339              		.loc 1 294 5 is_stmt 1 view .LVU114
 294:Drivers/STM32F4xx_HAL_Driver/Src/stm32f4xx_hal_dma_ex.c ****     
 340              		.loc 1 294 9 is_stmt 0 view .LVU115
 341 0078 0368     		ldr	r3, [r0]
 294:Drivers/STM32F4xx_HAL_Driver/Src/stm32f4xx_hal_dma_ex.c ****     
 342              		.loc 1 294 25 view .LVU116
 343 007a 9960     		str	r1, [r3, #8]
 344              		.loc 1 297 5 is_stmt 1 view .LVU117
 345              		.loc 1 297 9 is_stmt 0 view .LVU118
 346 007c 0368     		ldr	r3, [r0]
 347              		.loc 1 297 26 view .LVU119
 348 007e DA60     		str	r2, [r3, #12]
 349              	.L19:
 350              	.LVL33:
 351              		.loc 1 297 26 view .LVU120
 352              	.LBE11:
 353              	.LBE10:
 196:Drivers/STM32F4xx_HAL_Driver/Src/stm32f4xx_hal_dma_ex.c ****     __HAL_DMA_CLEAR_FLAG (hdma, __HAL_DMA_GET_HT_FLAG_INDEX(hdma));
 354              		.loc 1 196 5 is_stmt 1 view .LVU121
 355 0080 0368     		ldr	r3, [r0]
 356 0082 A44A     		ldr	r2, .L128
 357              	.LVL34:
 196:Drivers/STM32F4xx_HAL_Driver/Src/stm32f4xx_hal_dma_ex.c ****     __HAL_DMA_CLEAR_FLAG (hdma, __HAL_DMA_GET_HT_FLAG_INDEX(hdma));
 358              		.loc 1 196 5 is_stmt 0 view .LVU122
ARM GAS  C:\Users\maari\AppData\Local\Temp\ccWaE7UA.s 			page 14


 359 0084 9342     		cmp	r3, r2
 360 0086 2AD9     		bls	.L20
 196:Drivers/STM32F4xx_HAL_Driver/Src/stm32f4xx_hal_dma_ex.c ****     __HAL_DMA_CLEAR_FLAG (hdma, __HAL_DMA_GET_HT_FLAG_INDEX(hdma));
 361              		.loc 1 196 5 discriminator 7 view .LVU123
 362 0088 1832     		adds	r2, r2, #24
 363 008a 9342     		cmp	r3, r2
 364 008c 0FD0     		beq	.L63
 196:Drivers/STM32F4xx_HAL_Driver/Src/stm32f4xx_hal_dma_ex.c ****     __HAL_DMA_CLEAR_FLAG (hdma, __HAL_DMA_GET_HT_FLAG_INDEX(hdma));
 365              		.loc 1 196 5 discriminator 15 view .LVU124
 366 008e 1832     		adds	r2, r2, #24
 367 0090 9342     		cmp	r3, r2
 368 0092 21D0     		beq	.L64
 196:Drivers/STM32F4xx_HAL_Driver/Src/stm32f4xx_hal_dma_ex.c ****     __HAL_DMA_CLEAR_FLAG (hdma, __HAL_DMA_GET_HT_FLAG_INDEX(hdma));
 369              		.loc 1 196 5 discriminator 25 view .LVU125
 370 0094 1832     		adds	r2, r2, #24
 371 0096 9342     		cmp	r3, r2
 372 0098 14BF     		ite	ne
 373 009a 4FF00062 		movne	r2, #134217728
 374 009e 4FF40012 		moveq	r2, #2097152
 375 00a2 05E0     		b	.L21
 376              	.LVL35:
 377              	.L126:
 378              	.LBB13:
 379              	.LBB12:
 285:Drivers/STM32F4xx_HAL_Driver/Src/stm32f4xx_hal_dma_ex.c ****     
 380              		.loc 1 285 5 is_stmt 1 view .LVU126
 285:Drivers/STM32F4xx_HAL_Driver/Src/stm32f4xx_hal_dma_ex.c ****     
 381              		.loc 1 285 9 is_stmt 0 view .LVU127
 382 00a4 0368     		ldr	r3, [r0]
 285:Drivers/STM32F4xx_HAL_Driver/Src/stm32f4xx_hal_dma_ex.c ****     
 383              		.loc 1 285 25 view .LVU128
 384 00a6 9A60     		str	r2, [r3, #8]
 288:Drivers/STM32F4xx_HAL_Driver/Src/stm32f4xx_hal_dma_ex.c ****   }
 385              		.loc 1 288 5 is_stmt 1 view .LVU129
 288:Drivers/STM32F4xx_HAL_Driver/Src/stm32f4xx_hal_dma_ex.c ****   }
 386              		.loc 1 288 9 is_stmt 0 view .LVU130
 387 00a8 0368     		ldr	r3, [r0]
 288:Drivers/STM32F4xx_HAL_Driver/Src/stm32f4xx_hal_dma_ex.c ****   }
 388              		.loc 1 288 26 view .LVU131
 389 00aa D960     		str	r1, [r3, #12]
 390 00ac E8E7     		b	.L19
 391              	.LVL36:
 392              	.L63:
 288:Drivers/STM32F4xx_HAL_Driver/Src/stm32f4xx_hal_dma_ex.c ****   }
 393              		.loc 1 288 26 view .LVU132
 394              	.LBE12:
 395              	.LBE13:
 196:Drivers/STM32F4xx_HAL_Driver/Src/stm32f4xx_hal_dma_ex.c ****     __HAL_DMA_CLEAR_FLAG (hdma, __HAL_DMA_GET_HT_FLAG_INDEX(hdma));
 396              		.loc 1 196 5 discriminator 10 view .LVU133
 397 00ae 2022     		movs	r2, #32
 398              	.L21:
 196:Drivers/STM32F4xx_HAL_Driver/Src/stm32f4xx_hal_dma_ex.c ****     __HAL_DMA_CLEAR_FLAG (hdma, __HAL_DMA_GET_HT_FLAG_INDEX(hdma));
 399              		.loc 1 196 5 discriminator 50 view .LVU134
 400 00b0 994B     		ldr	r3, .L128+4
 401 00b2 DA60     		str	r2, [r3, #12]
 402              	.LVL37:
 403              	.L22:
ARM GAS  C:\Users\maari\AppData\Local\Temp\ccWaE7UA.s 			page 15


 197:Drivers/STM32F4xx_HAL_Driver/Src/stm32f4xx_hal_dma_ex.c ****     __HAL_DMA_CLEAR_FLAG (hdma, __HAL_DMA_GET_TE_FLAG_INDEX(hdma));
 404              		.loc 1 197 5 is_stmt 1 view .LVU135
 405 00b4 0368     		ldr	r3, [r0]
 406 00b6 974A     		ldr	r2, .L128
 407 00b8 9342     		cmp	r3, r2
 408 00ba 6ED9     		bls	.L28
 197:Drivers/STM32F4xx_HAL_Driver/Src/stm32f4xx_hal_dma_ex.c ****     __HAL_DMA_CLEAR_FLAG (hdma, __HAL_DMA_GET_TE_FLAG_INDEX(hdma));
 409              		.loc 1 197 5 is_stmt 0 discriminator 7 view .LVU136
 410 00bc 1832     		adds	r2, r2, #24
 411 00be 9342     		cmp	r3, r2
 412 00c0 53D0     		beq	.L75
 197:Drivers/STM32F4xx_HAL_Driver/Src/stm32f4xx_hal_dma_ex.c ****     __HAL_DMA_CLEAR_FLAG (hdma, __HAL_DMA_GET_TE_FLAG_INDEX(hdma));
 413              		.loc 1 197 5 discriminator 15 view .LVU137
 414 00c2 1832     		adds	r2, r2, #24
 415 00c4 9342     		cmp	r3, r2
 416 00c6 65D0     		beq	.L76
 197:Drivers/STM32F4xx_HAL_Driver/Src/stm32f4xx_hal_dma_ex.c ****     __HAL_DMA_CLEAR_FLAG (hdma, __HAL_DMA_GET_TE_FLAG_INDEX(hdma));
 417              		.loc 1 197 5 discriminator 25 view .LVU138
 418 00c8 1832     		adds	r2, r2, #24
 419 00ca 9342     		cmp	r3, r2
 420 00cc 14BF     		ite	ne
 421 00ce 4FF08062 		movne	r2, #67108864
 422 00d2 4FF48012 		moveq	r2, #1048576
 423 00d6 49E0     		b	.L29
 424              	.LVL38:
 425              	.L64:
 196:Drivers/STM32F4xx_HAL_Driver/Src/stm32f4xx_hal_dma_ex.c ****     __HAL_DMA_CLEAR_FLAG (hdma, __HAL_DMA_GET_HT_FLAG_INDEX(hdma));
 426              		.loc 1 196 5 discriminator 18 view .LVU139
 427 00d8 4FF40062 		mov	r2, #2048
 428 00dc E8E7     		b	.L21
 429              	.L20:
 196:Drivers/STM32F4xx_HAL_Driver/Src/stm32f4xx_hal_dma_ex.c ****     __HAL_DMA_CLEAR_FLAG (hdma, __HAL_DMA_GET_HT_FLAG_INDEX(hdma));
 430              		.loc 1 196 5 discriminator 2 view .LVU140
 431 00de 8F4A     		ldr	r2, .L128+8
 432 00e0 9342     		cmp	r3, r2
 433 00e2 15D9     		bls	.L23
 196:Drivers/STM32F4xx_HAL_Driver/Src/stm32f4xx_hal_dma_ex.c ****     __HAL_DMA_CLEAR_FLAG (hdma, __HAL_DMA_GET_HT_FLAG_INDEX(hdma));
 434              		.loc 1 196 5 discriminator 53 view .LVU141
 435 00e4 02F55672 		add	r2, r2, #856
 436 00e8 9342     		cmp	r3, r2
 437 00ea 0AD0     		beq	.L66
 196:Drivers/STM32F4xx_HAL_Driver/Src/stm32f4xx_hal_dma_ex.c ****     __HAL_DMA_CLEAR_FLAG (hdma, __HAL_DMA_GET_HT_FLAG_INDEX(hdma));
 438              		.loc 1 196 5 discriminator 61 view .LVU142
 439 00ec 1832     		adds	r2, r2, #24
 440 00ee 9342     		cmp	r3, r2
 441 00f0 0BD0     		beq	.L67
 196:Drivers/STM32F4xx_HAL_Driver/Src/stm32f4xx_hal_dma_ex.c ****     __HAL_DMA_CLEAR_FLAG (hdma, __HAL_DMA_GET_HT_FLAG_INDEX(hdma));
 442              		.loc 1 196 5 discriminator 72 view .LVU143
 443 00f2 1832     		adds	r2, r2, #24
 444 00f4 9342     		cmp	r3, r2
 445 00f6 14BF     		ite	ne
 446 00f8 4FF00062 		movne	r2, #134217728
 447 00fc 4FF40012 		moveq	r2, #2097152
 448 0100 00E0     		b	.L24
 449              	.L66:
 196:Drivers/STM32F4xx_HAL_Driver/Src/stm32f4xx_hal_dma_ex.c ****     __HAL_DMA_CLEAR_FLAG (hdma, __HAL_DMA_GET_HT_FLAG_INDEX(hdma));
 450              		.loc 1 196 5 discriminator 56 view .LVU144
ARM GAS  C:\Users\maari\AppData\Local\Temp\ccWaE7UA.s 			page 16


 451 0102 2022     		movs	r2, #32
 452              	.L24:
 196:Drivers/STM32F4xx_HAL_Driver/Src/stm32f4xx_hal_dma_ex.c ****     __HAL_DMA_CLEAR_FLAG (hdma, __HAL_DMA_GET_HT_FLAG_INDEX(hdma));
 453              		.loc 1 196 5 discriminator 100 view .LVU145
 454 0104 844B     		ldr	r3, .L128+4
 455 0106 9A60     		str	r2, [r3, #8]
 456              	.LVL39:
 196:Drivers/STM32F4xx_HAL_Driver/Src/stm32f4xx_hal_dma_ex.c ****     __HAL_DMA_CLEAR_FLAG (hdma, __HAL_DMA_GET_HT_FLAG_INDEX(hdma));
 457              		.loc 1 196 5 discriminator 100 view .LVU146
 458 0108 D4E7     		b	.L22
 459              	.LVL40:
 460              	.L67:
 196:Drivers/STM32F4xx_HAL_Driver/Src/stm32f4xx_hal_dma_ex.c ****     __HAL_DMA_CLEAR_FLAG (hdma, __HAL_DMA_GET_HT_FLAG_INDEX(hdma));
 461              		.loc 1 196 5 discriminator 64 view .LVU147
 462 010a 4FF40062 		mov	r2, #2048
 463 010e F9E7     		b	.L24
 464              	.L23:
 196:Drivers/STM32F4xx_HAL_Driver/Src/stm32f4xx_hal_dma_ex.c ****     __HAL_DMA_CLEAR_FLAG (hdma, __HAL_DMA_GET_HT_FLAG_INDEX(hdma));
 465              		.loc 1 196 5 discriminator 52 view .LVU148
 466 0110 834A     		ldr	r2, .L128+12
 467 0112 9342     		cmp	r3, r2
 468 0114 14D9     		bls	.L25
 196:Drivers/STM32F4xx_HAL_Driver/Src/stm32f4xx_hal_dma_ex.c ****     __HAL_DMA_CLEAR_FLAG (hdma, __HAL_DMA_GET_HT_FLAG_INDEX(hdma));
 469              		.loc 1 196 5 discriminator 106 view .LVU149
 470 0116 1832     		adds	r2, r2, #24
 471 0118 9342     		cmp	r3, r2
 472 011a 0AD0     		beq	.L69
 196:Drivers/STM32F4xx_HAL_Driver/Src/stm32f4xx_hal_dma_ex.c ****     __HAL_DMA_CLEAR_FLAG (hdma, __HAL_DMA_GET_HT_FLAG_INDEX(hdma));
 473              		.loc 1 196 5 discriminator 114 view .LVU150
 474 011c 1832     		adds	r2, r2, #24
 475 011e 9342     		cmp	r3, r2
 476 0120 0BD0     		beq	.L70
 196:Drivers/STM32F4xx_HAL_Driver/Src/stm32f4xx_hal_dma_ex.c ****     __HAL_DMA_CLEAR_FLAG (hdma, __HAL_DMA_GET_HT_FLAG_INDEX(hdma));
 477              		.loc 1 196 5 discriminator 125 view .LVU151
 478 0122 1832     		adds	r2, r2, #24
 479 0124 9342     		cmp	r3, r2
 480 0126 14BF     		ite	ne
 481 0128 4FF00062 		movne	r2, #134217728
 482 012c 4FF40012 		moveq	r2, #2097152
 483 0130 00E0     		b	.L26
 484              	.L69:
 196:Drivers/STM32F4xx_HAL_Driver/Src/stm32f4xx_hal_dma_ex.c ****     __HAL_DMA_CLEAR_FLAG (hdma, __HAL_DMA_GET_HT_FLAG_INDEX(hdma));
 485              		.loc 1 196 5 discriminator 109 view .LVU152
 486 0132 2022     		movs	r2, #32
 487              	.L26:
 196:Drivers/STM32F4xx_HAL_Driver/Src/stm32f4xx_hal_dma_ex.c ****     __HAL_DMA_CLEAR_FLAG (hdma, __HAL_DMA_GET_HT_FLAG_INDEX(hdma));
 488              		.loc 1 196 5 discriminator 151 view .LVU153
 489 0134 7B4B     		ldr	r3, .L128+16
 490 0136 DA60     		str	r2, [r3, #12]
 491              	.LVL41:
 196:Drivers/STM32F4xx_HAL_Driver/Src/stm32f4xx_hal_dma_ex.c ****     __HAL_DMA_CLEAR_FLAG (hdma, __HAL_DMA_GET_HT_FLAG_INDEX(hdma));
 492              		.loc 1 196 5 discriminator 151 view .LVU154
 493 0138 BCE7     		b	.L22
 494              	.LVL42:
 495              	.L70:
 196:Drivers/STM32F4xx_HAL_Driver/Src/stm32f4xx_hal_dma_ex.c ****     __HAL_DMA_CLEAR_FLAG (hdma, __HAL_DMA_GET_HT_FLAG_INDEX(hdma));
 496              		.loc 1 196 5 discriminator 117 view .LVU155
ARM GAS  C:\Users\maari\AppData\Local\Temp\ccWaE7UA.s 			page 17


 497 013a 4FF40062 		mov	r2, #2048
 498 013e F9E7     		b	.L26
 499              	.L25:
 196:Drivers/STM32F4xx_HAL_Driver/Src/stm32f4xx_hal_dma_ex.c ****     __HAL_DMA_CLEAR_FLAG (hdma, __HAL_DMA_GET_HT_FLAG_INDEX(hdma));
 500              		.loc 1 196 5 discriminator 103 view .LVU156
 501 0140 794A     		ldr	r2, .L128+20
 502 0142 9342     		cmp	r3, r2
 503 0144 0AD0     		beq	.L72
 196:Drivers/STM32F4xx_HAL_Driver/Src/stm32f4xx_hal_dma_ex.c ****     __HAL_DMA_CLEAR_FLAG (hdma, __HAL_DMA_GET_HT_FLAG_INDEX(hdma));
 504              		.loc 1 196 5 discriminator 159 view .LVU157
 505 0146 1832     		adds	r2, r2, #24
 506 0148 9342     		cmp	r3, r2
 507 014a 0BD0     		beq	.L73
 196:Drivers/STM32F4xx_HAL_Driver/Src/stm32f4xx_hal_dma_ex.c ****     __HAL_DMA_CLEAR_FLAG (hdma, __HAL_DMA_GET_HT_FLAG_INDEX(hdma));
 508              		.loc 1 196 5 discriminator 170 view .LVU158
 509 014c 1832     		adds	r2, r2, #24
 510 014e 9342     		cmp	r3, r2
 511 0150 14BF     		ite	ne
 512 0152 4FF00063 		movne	r3, #134217728
 513 0156 4FF40013 		moveq	r3, #2097152
 514 015a 00E0     		b	.L27
 515              	.L72:
 196:Drivers/STM32F4xx_HAL_Driver/Src/stm32f4xx_hal_dma_ex.c ****     __HAL_DMA_CLEAR_FLAG (hdma, __HAL_DMA_GET_HT_FLAG_INDEX(hdma));
 516              		.loc 1 196 5 discriminator 154 view .LVU159
 517 015c 2023     		movs	r3, #32
 518              	.L27:
 196:Drivers/STM32F4xx_HAL_Driver/Src/stm32f4xx_hal_dma_ex.c ****     __HAL_DMA_CLEAR_FLAG (hdma, __HAL_DMA_GET_HT_FLAG_INDEX(hdma));
 519              		.loc 1 196 5 discriminator 200 view .LVU160
 520 015e 714A     		ldr	r2, .L128+16
 521 0160 9360     		str	r3, [r2, #8]
 522              	.LVL43:
 196:Drivers/STM32F4xx_HAL_Driver/Src/stm32f4xx_hal_dma_ex.c ****     __HAL_DMA_CLEAR_FLAG (hdma, __HAL_DMA_GET_HT_FLAG_INDEX(hdma));
 523              		.loc 1 196 5 discriminator 200 view .LVU161
 524 0162 A7E7     		b	.L22
 525              	.LVL44:
 526              	.L73:
 196:Drivers/STM32F4xx_HAL_Driver/Src/stm32f4xx_hal_dma_ex.c ****     __HAL_DMA_CLEAR_FLAG (hdma, __HAL_DMA_GET_HT_FLAG_INDEX(hdma));
 527              		.loc 1 196 5 discriminator 162 view .LVU162
 528 0164 4FF40063 		mov	r3, #2048
 529 0168 F9E7     		b	.L27
 530              	.LVL45:
 531              	.L75:
 197:Drivers/STM32F4xx_HAL_Driver/Src/stm32f4xx_hal_dma_ex.c ****     __HAL_DMA_CLEAR_FLAG (hdma, __HAL_DMA_GET_TE_FLAG_INDEX(hdma));
 532              		.loc 1 197 5 discriminator 10 view .LVU163
 533 016a 1022     		movs	r2, #16
 534              	.L29:
 197:Drivers/STM32F4xx_HAL_Driver/Src/stm32f4xx_hal_dma_ex.c ****     __HAL_DMA_CLEAR_FLAG (hdma, __HAL_DMA_GET_TE_FLAG_INDEX(hdma));
 535              		.loc 1 197 5 discriminator 50 view .LVU164
 536 016c 6A4B     		ldr	r3, .L128+4
 537 016e DA60     		str	r2, [r3, #12]
 538              	.L30:
 198:Drivers/STM32F4xx_HAL_Driver/Src/stm32f4xx_hal_dma_ex.c ****     __HAL_DMA_CLEAR_FLAG (hdma, __HAL_DMA_GET_DME_FLAG_INDEX(hdma));
 539              		.loc 1 198 5 is_stmt 1 view .LVU165
 540 0170 0368     		ldr	r3, [r0]
 541 0172 684A     		ldr	r2, .L128
 542 0174 9342     		cmp	r3, r2
 543 0176 6ED9     		bls	.L36
ARM GAS  C:\Users\maari\AppData\Local\Temp\ccWaE7UA.s 			page 18


 198:Drivers/STM32F4xx_HAL_Driver/Src/stm32f4xx_hal_dma_ex.c ****     __HAL_DMA_CLEAR_FLAG (hdma, __HAL_DMA_GET_DME_FLAG_INDEX(hdma));
 544              		.loc 1 198 5 is_stmt 0 discriminator 7 view .LVU166
 545 0178 1832     		adds	r2, r2, #24
 546 017a 9342     		cmp	r3, r2
 547 017c 53D0     		beq	.L87
 198:Drivers/STM32F4xx_HAL_Driver/Src/stm32f4xx_hal_dma_ex.c ****     __HAL_DMA_CLEAR_FLAG (hdma, __HAL_DMA_GET_DME_FLAG_INDEX(hdma));
 548              		.loc 1 198 5 discriminator 15 view .LVU167
 549 017e 1832     		adds	r2, r2, #24
 550 0180 9342     		cmp	r3, r2
 551 0182 65D0     		beq	.L88
 198:Drivers/STM32F4xx_HAL_Driver/Src/stm32f4xx_hal_dma_ex.c ****     __HAL_DMA_CLEAR_FLAG (hdma, __HAL_DMA_GET_DME_FLAG_INDEX(hdma));
 552              		.loc 1 198 5 discriminator 25 view .LVU168
 553 0184 1832     		adds	r2, r2, #24
 554 0186 9342     		cmp	r3, r2
 555 0188 14BF     		ite	ne
 556 018a 4FF00072 		movne	r2, #33554432
 557 018e 4FF40022 		moveq	r2, #524288
 558 0192 49E0     		b	.L37
 559              	.L76:
 197:Drivers/STM32F4xx_HAL_Driver/Src/stm32f4xx_hal_dma_ex.c ****     __HAL_DMA_CLEAR_FLAG (hdma, __HAL_DMA_GET_TE_FLAG_INDEX(hdma));
 560              		.loc 1 197 5 discriminator 18 view .LVU169
 561 0194 4FF48062 		mov	r2, #1024
 562 0198 E8E7     		b	.L29
 563              	.L28:
 197:Drivers/STM32F4xx_HAL_Driver/Src/stm32f4xx_hal_dma_ex.c ****     __HAL_DMA_CLEAR_FLAG (hdma, __HAL_DMA_GET_TE_FLAG_INDEX(hdma));
 564              		.loc 1 197 5 discriminator 2 view .LVU170
 565 019a 604A     		ldr	r2, .L128+8
 566 019c 9342     		cmp	r3, r2
 567 019e 15D9     		bls	.L31
 197:Drivers/STM32F4xx_HAL_Driver/Src/stm32f4xx_hal_dma_ex.c ****     __HAL_DMA_CLEAR_FLAG (hdma, __HAL_DMA_GET_TE_FLAG_INDEX(hdma));
 568              		.loc 1 197 5 discriminator 53 view .LVU171
 569 01a0 02F55672 		add	r2, r2, #856
 570 01a4 9342     		cmp	r3, r2
 571 01a6 0AD0     		beq	.L78
 197:Drivers/STM32F4xx_HAL_Driver/Src/stm32f4xx_hal_dma_ex.c ****     __HAL_DMA_CLEAR_FLAG (hdma, __HAL_DMA_GET_TE_FLAG_INDEX(hdma));
 572              		.loc 1 197 5 discriminator 61 view .LVU172
 573 01a8 1832     		adds	r2, r2, #24
 574 01aa 9342     		cmp	r3, r2
 575 01ac 0BD0     		beq	.L79
 197:Drivers/STM32F4xx_HAL_Driver/Src/stm32f4xx_hal_dma_ex.c ****     __HAL_DMA_CLEAR_FLAG (hdma, __HAL_DMA_GET_TE_FLAG_INDEX(hdma));
 576              		.loc 1 197 5 discriminator 72 view .LVU173
 577 01ae 1832     		adds	r2, r2, #24
 578 01b0 9342     		cmp	r3, r2
 579 01b2 14BF     		ite	ne
 580 01b4 4FF08062 		movne	r2, #67108864
 581 01b8 4FF48012 		moveq	r2, #1048576
 582 01bc 00E0     		b	.L32
 583              	.L78:
 197:Drivers/STM32F4xx_HAL_Driver/Src/stm32f4xx_hal_dma_ex.c ****     __HAL_DMA_CLEAR_FLAG (hdma, __HAL_DMA_GET_TE_FLAG_INDEX(hdma));
 584              		.loc 1 197 5 discriminator 56 view .LVU174
 585 01be 1022     		movs	r2, #16
 586              	.L32:
 197:Drivers/STM32F4xx_HAL_Driver/Src/stm32f4xx_hal_dma_ex.c ****     __HAL_DMA_CLEAR_FLAG (hdma, __HAL_DMA_GET_TE_FLAG_INDEX(hdma));
 587              		.loc 1 197 5 discriminator 100 view .LVU175
 588 01c0 554B     		ldr	r3, .L128+4
 589 01c2 9A60     		str	r2, [r3, #8]
 590 01c4 D4E7     		b	.L30
ARM GAS  C:\Users\maari\AppData\Local\Temp\ccWaE7UA.s 			page 19


 591              	.L79:
 197:Drivers/STM32F4xx_HAL_Driver/Src/stm32f4xx_hal_dma_ex.c ****     __HAL_DMA_CLEAR_FLAG (hdma, __HAL_DMA_GET_TE_FLAG_INDEX(hdma));
 592              		.loc 1 197 5 discriminator 64 view .LVU176
 593 01c6 4FF48062 		mov	r2, #1024
 594 01ca F9E7     		b	.L32
 595              	.L31:
 197:Drivers/STM32F4xx_HAL_Driver/Src/stm32f4xx_hal_dma_ex.c ****     __HAL_DMA_CLEAR_FLAG (hdma, __HAL_DMA_GET_TE_FLAG_INDEX(hdma));
 596              		.loc 1 197 5 discriminator 52 view .LVU177
 597 01cc 544A     		ldr	r2, .L128+12
 598 01ce 9342     		cmp	r3, r2
 599 01d0 14D9     		bls	.L33
 197:Drivers/STM32F4xx_HAL_Driver/Src/stm32f4xx_hal_dma_ex.c ****     __HAL_DMA_CLEAR_FLAG (hdma, __HAL_DMA_GET_TE_FLAG_INDEX(hdma));
 600              		.loc 1 197 5 discriminator 106 view .LVU178
 601 01d2 1832     		adds	r2, r2, #24
 602 01d4 9342     		cmp	r3, r2
 603 01d6 0AD0     		beq	.L81
 197:Drivers/STM32F4xx_HAL_Driver/Src/stm32f4xx_hal_dma_ex.c ****     __HAL_DMA_CLEAR_FLAG (hdma, __HAL_DMA_GET_TE_FLAG_INDEX(hdma));
 604              		.loc 1 197 5 discriminator 114 view .LVU179
 605 01d8 1832     		adds	r2, r2, #24
 606 01da 9342     		cmp	r3, r2
 607 01dc 0BD0     		beq	.L82
 197:Drivers/STM32F4xx_HAL_Driver/Src/stm32f4xx_hal_dma_ex.c ****     __HAL_DMA_CLEAR_FLAG (hdma, __HAL_DMA_GET_TE_FLAG_INDEX(hdma));
 608              		.loc 1 197 5 discriminator 125 view .LVU180
 609 01de 1832     		adds	r2, r2, #24
 610 01e0 9342     		cmp	r3, r2
 611 01e2 14BF     		ite	ne
 612 01e4 4FF08062 		movne	r2, #67108864
 613 01e8 4FF48012 		moveq	r2, #1048576
 614 01ec 00E0     		b	.L34
 615              	.L81:
 197:Drivers/STM32F4xx_HAL_Driver/Src/stm32f4xx_hal_dma_ex.c ****     __HAL_DMA_CLEAR_FLAG (hdma, __HAL_DMA_GET_TE_FLAG_INDEX(hdma));
 616              		.loc 1 197 5 discriminator 109 view .LVU181
 617 01ee 1022     		movs	r2, #16
 618              	.L34:
 197:Drivers/STM32F4xx_HAL_Driver/Src/stm32f4xx_hal_dma_ex.c ****     __HAL_DMA_CLEAR_FLAG (hdma, __HAL_DMA_GET_TE_FLAG_INDEX(hdma));
 619              		.loc 1 197 5 discriminator 151 view .LVU182
 620 01f0 4C4B     		ldr	r3, .L128+16
 621 01f2 DA60     		str	r2, [r3, #12]
 622 01f4 BCE7     		b	.L30
 623              	.L82:
 197:Drivers/STM32F4xx_HAL_Driver/Src/stm32f4xx_hal_dma_ex.c ****     __HAL_DMA_CLEAR_FLAG (hdma, __HAL_DMA_GET_TE_FLAG_INDEX(hdma));
 624              		.loc 1 197 5 discriminator 117 view .LVU183
 625 01f6 4FF48062 		mov	r2, #1024
 626 01fa F9E7     		b	.L34
 627              	.L33:
 197:Drivers/STM32F4xx_HAL_Driver/Src/stm32f4xx_hal_dma_ex.c ****     __HAL_DMA_CLEAR_FLAG (hdma, __HAL_DMA_GET_TE_FLAG_INDEX(hdma));
 628              		.loc 1 197 5 discriminator 103 view .LVU184
 629 01fc 4A4A     		ldr	r2, .L128+20
 630 01fe 9342     		cmp	r3, r2
 631 0200 0AD0     		beq	.L84
 197:Drivers/STM32F4xx_HAL_Driver/Src/stm32f4xx_hal_dma_ex.c ****     __HAL_DMA_CLEAR_FLAG (hdma, __HAL_DMA_GET_TE_FLAG_INDEX(hdma));
 632              		.loc 1 197 5 discriminator 159 view .LVU185
 633 0202 1832     		adds	r2, r2, #24
 634 0204 9342     		cmp	r3, r2
 635 0206 0BD0     		beq	.L85
 197:Drivers/STM32F4xx_HAL_Driver/Src/stm32f4xx_hal_dma_ex.c ****     __HAL_DMA_CLEAR_FLAG (hdma, __HAL_DMA_GET_TE_FLAG_INDEX(hdma));
 636              		.loc 1 197 5 discriminator 170 view .LVU186
ARM GAS  C:\Users\maari\AppData\Local\Temp\ccWaE7UA.s 			page 20


 637 0208 1832     		adds	r2, r2, #24
 638 020a 9342     		cmp	r3, r2
 639 020c 14BF     		ite	ne
 640 020e 4FF08063 		movne	r3, #67108864
 641 0212 4FF48013 		moveq	r3, #1048576
 642 0216 00E0     		b	.L35
 643              	.L84:
 197:Drivers/STM32F4xx_HAL_Driver/Src/stm32f4xx_hal_dma_ex.c ****     __HAL_DMA_CLEAR_FLAG (hdma, __HAL_DMA_GET_TE_FLAG_INDEX(hdma));
 644              		.loc 1 197 5 discriminator 154 view .LVU187
 645 0218 1023     		movs	r3, #16
 646              	.L35:
 197:Drivers/STM32F4xx_HAL_Driver/Src/stm32f4xx_hal_dma_ex.c ****     __HAL_DMA_CLEAR_FLAG (hdma, __HAL_DMA_GET_TE_FLAG_INDEX(hdma));
 647              		.loc 1 197 5 discriminator 200 view .LVU188
 648 021a 424A     		ldr	r2, .L128+16
 649 021c 9360     		str	r3, [r2, #8]
 650 021e A7E7     		b	.L30
 651              	.L85:
 197:Drivers/STM32F4xx_HAL_Driver/Src/stm32f4xx_hal_dma_ex.c ****     __HAL_DMA_CLEAR_FLAG (hdma, __HAL_DMA_GET_TE_FLAG_INDEX(hdma));
 652              		.loc 1 197 5 discriminator 162 view .LVU189
 653 0220 4FF48063 		mov	r3, #1024
 654 0224 F9E7     		b	.L35
 655              	.L87:
 198:Drivers/STM32F4xx_HAL_Driver/Src/stm32f4xx_hal_dma_ex.c ****     __HAL_DMA_CLEAR_FLAG (hdma, __HAL_DMA_GET_DME_FLAG_INDEX(hdma));
 656              		.loc 1 198 5 discriminator 10 view .LVU190
 657 0226 0822     		movs	r2, #8
 658              	.L37:
 198:Drivers/STM32F4xx_HAL_Driver/Src/stm32f4xx_hal_dma_ex.c ****     __HAL_DMA_CLEAR_FLAG (hdma, __HAL_DMA_GET_DME_FLAG_INDEX(hdma));
 659              		.loc 1 198 5 discriminator 50 view .LVU191
 660 0228 3B4B     		ldr	r3, .L128+4
 661 022a DA60     		str	r2, [r3, #12]
 662              	.L38:
 199:Drivers/STM32F4xx_HAL_Driver/Src/stm32f4xx_hal_dma_ex.c ****     __HAL_DMA_CLEAR_FLAG (hdma, __HAL_DMA_GET_FE_FLAG_INDEX(hdma));
 663              		.loc 1 199 5 is_stmt 1 view .LVU192
 664 022c 0368     		ldr	r3, [r0]
 665 022e 394A     		ldr	r2, .L128
 666 0230 9342     		cmp	r3, r2
 667 0232 7BD9     		bls	.L44
 199:Drivers/STM32F4xx_HAL_Driver/Src/stm32f4xx_hal_dma_ex.c ****     __HAL_DMA_CLEAR_FLAG (hdma, __HAL_DMA_GET_FE_FLAG_INDEX(hdma));
 668              		.loc 1 199 5 is_stmt 0 discriminator 7 view .LVU193
 669 0234 1832     		adds	r2, r2, #24
 670 0236 9342     		cmp	r3, r2
 671 0238 53D0     		beq	.L99
 199:Drivers/STM32F4xx_HAL_Driver/Src/stm32f4xx_hal_dma_ex.c ****     __HAL_DMA_CLEAR_FLAG (hdma, __HAL_DMA_GET_FE_FLAG_INDEX(hdma));
 672              		.loc 1 199 5 discriminator 15 view .LVU194
 673 023a 1832     		adds	r2, r2, #24
 674 023c 9342     		cmp	r3, r2
 675 023e 66D0     		beq	.L100
 199:Drivers/STM32F4xx_HAL_Driver/Src/stm32f4xx_hal_dma_ex.c ****     __HAL_DMA_CLEAR_FLAG (hdma, __HAL_DMA_GET_FE_FLAG_INDEX(hdma));
 676              		.loc 1 199 5 discriminator 25 view .LVU195
 677 0240 1832     		adds	r2, r2, #24
 678 0242 9342     		cmp	r3, r2
 679 0244 14BF     		ite	ne
 680 0246 4FF08072 		movne	r2, #16777216
 681 024a 4FF48022 		moveq	r2, #262144
 682 024e 49E0     		b	.L45
 683              	.L88:
 198:Drivers/STM32F4xx_HAL_Driver/Src/stm32f4xx_hal_dma_ex.c ****     __HAL_DMA_CLEAR_FLAG (hdma, __HAL_DMA_GET_DME_FLAG_INDEX(hdma));
ARM GAS  C:\Users\maari\AppData\Local\Temp\ccWaE7UA.s 			page 21


 684              		.loc 1 198 5 discriminator 18 view .LVU196
 685 0250 4FF40072 		mov	r2, #512
 686 0254 E8E7     		b	.L37
 687              	.L36:
 198:Drivers/STM32F4xx_HAL_Driver/Src/stm32f4xx_hal_dma_ex.c ****     __HAL_DMA_CLEAR_FLAG (hdma, __HAL_DMA_GET_DME_FLAG_INDEX(hdma));
 688              		.loc 1 198 5 discriminator 2 view .LVU197
 689 0256 314A     		ldr	r2, .L128+8
 690 0258 9342     		cmp	r3, r2
 691 025a 15D9     		bls	.L39
 198:Drivers/STM32F4xx_HAL_Driver/Src/stm32f4xx_hal_dma_ex.c ****     __HAL_DMA_CLEAR_FLAG (hdma, __HAL_DMA_GET_DME_FLAG_INDEX(hdma));
 692              		.loc 1 198 5 discriminator 53 view .LVU198
 693 025c 02F55672 		add	r2, r2, #856
 694 0260 9342     		cmp	r3, r2
 695 0262 0AD0     		beq	.L90
 198:Drivers/STM32F4xx_HAL_Driver/Src/stm32f4xx_hal_dma_ex.c ****     __HAL_DMA_CLEAR_FLAG (hdma, __HAL_DMA_GET_DME_FLAG_INDEX(hdma));
 696              		.loc 1 198 5 discriminator 61 view .LVU199
 697 0264 1832     		adds	r2, r2, #24
 698 0266 9342     		cmp	r3, r2
 699 0268 0BD0     		beq	.L91
 198:Drivers/STM32F4xx_HAL_Driver/Src/stm32f4xx_hal_dma_ex.c ****     __HAL_DMA_CLEAR_FLAG (hdma, __HAL_DMA_GET_DME_FLAG_INDEX(hdma));
 700              		.loc 1 198 5 discriminator 72 view .LVU200
 701 026a 1832     		adds	r2, r2, #24
 702 026c 9342     		cmp	r3, r2
 703 026e 14BF     		ite	ne
 704 0270 4FF00072 		movne	r2, #33554432
 705 0274 4FF40022 		moveq	r2, #524288
 706 0278 00E0     		b	.L40
 707              	.L90:
 198:Drivers/STM32F4xx_HAL_Driver/Src/stm32f4xx_hal_dma_ex.c ****     __HAL_DMA_CLEAR_FLAG (hdma, __HAL_DMA_GET_DME_FLAG_INDEX(hdma));
 708              		.loc 1 198 5 discriminator 56 view .LVU201
 709 027a 0822     		movs	r2, #8
 710              	.L40:
 198:Drivers/STM32F4xx_HAL_Driver/Src/stm32f4xx_hal_dma_ex.c ****     __HAL_DMA_CLEAR_FLAG (hdma, __HAL_DMA_GET_DME_FLAG_INDEX(hdma));
 711              		.loc 1 198 5 discriminator 100 view .LVU202
 712 027c 264B     		ldr	r3, .L128+4
 713 027e 9A60     		str	r2, [r3, #8]
 714 0280 D4E7     		b	.L38
 715              	.L91:
 198:Drivers/STM32F4xx_HAL_Driver/Src/stm32f4xx_hal_dma_ex.c ****     __HAL_DMA_CLEAR_FLAG (hdma, __HAL_DMA_GET_DME_FLAG_INDEX(hdma));
 716              		.loc 1 198 5 discriminator 64 view .LVU203
 717 0282 4FF40072 		mov	r2, #512
 718 0286 F9E7     		b	.L40
 719              	.L39:
 198:Drivers/STM32F4xx_HAL_Driver/Src/stm32f4xx_hal_dma_ex.c ****     __HAL_DMA_CLEAR_FLAG (hdma, __HAL_DMA_GET_DME_FLAG_INDEX(hdma));
 720              		.loc 1 198 5 discriminator 52 view .LVU204
 721 0288 254A     		ldr	r2, .L128+12
 722 028a 9342     		cmp	r3, r2
 723 028c 14D9     		bls	.L41
 198:Drivers/STM32F4xx_HAL_Driver/Src/stm32f4xx_hal_dma_ex.c ****     __HAL_DMA_CLEAR_FLAG (hdma, __HAL_DMA_GET_DME_FLAG_INDEX(hdma));
 724              		.loc 1 198 5 discriminator 106 view .LVU205
 725 028e 1832     		adds	r2, r2, #24
 726 0290 9342     		cmp	r3, r2
 727 0292 0AD0     		beq	.L93
 198:Drivers/STM32F4xx_HAL_Driver/Src/stm32f4xx_hal_dma_ex.c ****     __HAL_DMA_CLEAR_FLAG (hdma, __HAL_DMA_GET_DME_FLAG_INDEX(hdma));
 728              		.loc 1 198 5 discriminator 114 view .LVU206
 729 0294 1832     		adds	r2, r2, #24
 730 0296 9342     		cmp	r3, r2
ARM GAS  C:\Users\maari\AppData\Local\Temp\ccWaE7UA.s 			page 22


 731 0298 0BD0     		beq	.L94
 198:Drivers/STM32F4xx_HAL_Driver/Src/stm32f4xx_hal_dma_ex.c ****     __HAL_DMA_CLEAR_FLAG (hdma, __HAL_DMA_GET_DME_FLAG_INDEX(hdma));
 732              		.loc 1 198 5 discriminator 125 view .LVU207
 733 029a 1832     		adds	r2, r2, #24
 734 029c 9342     		cmp	r3, r2
 735 029e 14BF     		ite	ne
 736 02a0 4FF00072 		movne	r2, #33554432
 737 02a4 4FF40022 		moveq	r2, #524288
 738 02a8 00E0     		b	.L42
 739              	.L93:
 198:Drivers/STM32F4xx_HAL_Driver/Src/stm32f4xx_hal_dma_ex.c ****     __HAL_DMA_CLEAR_FLAG (hdma, __HAL_DMA_GET_DME_FLAG_INDEX(hdma));
 740              		.loc 1 198 5 discriminator 109 view .LVU208
 741 02aa 0822     		movs	r2, #8
 742              	.L42:
 198:Drivers/STM32F4xx_HAL_Driver/Src/stm32f4xx_hal_dma_ex.c ****     __HAL_DMA_CLEAR_FLAG (hdma, __HAL_DMA_GET_DME_FLAG_INDEX(hdma));
 743              		.loc 1 198 5 discriminator 151 view .LVU209
 744 02ac 1D4B     		ldr	r3, .L128+16
 745 02ae DA60     		str	r2, [r3, #12]
 746 02b0 BCE7     		b	.L38
 747              	.L94:
 198:Drivers/STM32F4xx_HAL_Driver/Src/stm32f4xx_hal_dma_ex.c ****     __HAL_DMA_CLEAR_FLAG (hdma, __HAL_DMA_GET_DME_FLAG_INDEX(hdma));
 748              		.loc 1 198 5 discriminator 117 view .LVU210
 749 02b2 4FF40072 		mov	r2, #512
 750 02b6 F9E7     		b	.L42
 751              	.L41:
 198:Drivers/STM32F4xx_HAL_Driver/Src/stm32f4xx_hal_dma_ex.c ****     __HAL_DMA_CLEAR_FLAG (hdma, __HAL_DMA_GET_DME_FLAG_INDEX(hdma));
 752              		.loc 1 198 5 discriminator 103 view .LVU211
 753 02b8 1B4A     		ldr	r2, .L128+20
 754 02ba 9342     		cmp	r3, r2
 755 02bc 0AD0     		beq	.L96
 198:Drivers/STM32F4xx_HAL_Driver/Src/stm32f4xx_hal_dma_ex.c ****     __HAL_DMA_CLEAR_FLAG (hdma, __HAL_DMA_GET_DME_FLAG_INDEX(hdma));
 756              		.loc 1 198 5 discriminator 159 view .LVU212
 757 02be 1832     		adds	r2, r2, #24
 758 02c0 9342     		cmp	r3, r2
 759 02c2 0BD0     		beq	.L97
 198:Drivers/STM32F4xx_HAL_Driver/Src/stm32f4xx_hal_dma_ex.c ****     __HAL_DMA_CLEAR_FLAG (hdma, __HAL_DMA_GET_DME_FLAG_INDEX(hdma));
 760              		.loc 1 198 5 discriminator 170 view .LVU213
 761 02c4 1832     		adds	r2, r2, #24
 762 02c6 9342     		cmp	r3, r2
 763 02c8 14BF     		ite	ne
 764 02ca 4FF00073 		movne	r3, #33554432
 765 02ce 4FF40023 		moveq	r3, #524288
 766 02d2 00E0     		b	.L43
 767              	.L96:
 198:Drivers/STM32F4xx_HAL_Driver/Src/stm32f4xx_hal_dma_ex.c ****     __HAL_DMA_CLEAR_FLAG (hdma, __HAL_DMA_GET_DME_FLAG_INDEX(hdma));
 768              		.loc 1 198 5 discriminator 154 view .LVU214
 769 02d4 0823     		movs	r3, #8
 770              	.L43:
 198:Drivers/STM32F4xx_HAL_Driver/Src/stm32f4xx_hal_dma_ex.c ****     __HAL_DMA_CLEAR_FLAG (hdma, __HAL_DMA_GET_DME_FLAG_INDEX(hdma));
 771              		.loc 1 198 5 discriminator 200 view .LVU215
 772 02d6 134A     		ldr	r2, .L128+16
 773 02d8 9360     		str	r3, [r2, #8]
 774 02da A7E7     		b	.L38
 775              	.L97:
 198:Drivers/STM32F4xx_HAL_Driver/Src/stm32f4xx_hal_dma_ex.c ****     __HAL_DMA_CLEAR_FLAG (hdma, __HAL_DMA_GET_DME_FLAG_INDEX(hdma));
 776              		.loc 1 198 5 discriminator 162 view .LVU216
 777 02dc 4FF40073 		mov	r3, #512
ARM GAS  C:\Users\maari\AppData\Local\Temp\ccWaE7UA.s 			page 23


 778 02e0 F9E7     		b	.L43
 779              	.L99:
 199:Drivers/STM32F4xx_HAL_Driver/Src/stm32f4xx_hal_dma_ex.c ****     __HAL_DMA_CLEAR_FLAG (hdma, __HAL_DMA_GET_FE_FLAG_INDEX(hdma));
 780              		.loc 1 199 5 discriminator 10 view .LVU217
 781 02e2 0422     		movs	r2, #4
 782              	.L45:
 199:Drivers/STM32F4xx_HAL_Driver/Src/stm32f4xx_hal_dma_ex.c ****     __HAL_DMA_CLEAR_FLAG (hdma, __HAL_DMA_GET_FE_FLAG_INDEX(hdma));
 783              		.loc 1 199 5 discriminator 50 view .LVU218
 784 02e4 0C4B     		ldr	r3, .L128+4
 785 02e6 DA60     		str	r2, [r3, #12]
 786              	.L46:
 200:Drivers/STM32F4xx_HAL_Driver/Src/stm32f4xx_hal_dma_ex.c **** 
 787              		.loc 1 200 5 is_stmt 1 view .LVU219
 788 02e8 0368     		ldr	r3, [r0]
 789 02ea 0A4A     		ldr	r2, .L128
 790 02ec 9342     		cmp	r3, r2
 791 02ee 40F28180 		bls	.L52
 200:Drivers/STM32F4xx_HAL_Driver/Src/stm32f4xx_hal_dma_ex.c **** 
 792              		.loc 1 200 5 is_stmt 0 discriminator 7 view .LVU220
 793 02f2 1832     		adds	r2, r2, #24
 794 02f4 9342     		cmp	r3, r2
 795 02f6 5FD0     		beq	.L111
 200:Drivers/STM32F4xx_HAL_Driver/Src/stm32f4xx_hal_dma_ex.c **** 
 796              		.loc 1 200 5 discriminator 15 view .LVU221
 797 02f8 1832     		adds	r2, r2, #24
 798 02fa 9342     		cmp	r3, r2
 799 02fc 78D0     		beq	.L112
 200:Drivers/STM32F4xx_HAL_Driver/Src/stm32f4xx_hal_dma_ex.c **** 
 800              		.loc 1 200 5 discriminator 25 view .LVU222
 801 02fe 1832     		adds	r2, r2, #24
 802 0300 9342     		cmp	r3, r2
 803 0302 14BF     		ite	ne
 804 0304 4FF48002 		movne	r2, #4194304
 805 0308 4FF48032 		moveq	r2, #65536
 806 030c 55E0     		b	.L53
 807              	.L100:
 199:Drivers/STM32F4xx_HAL_Driver/Src/stm32f4xx_hal_dma_ex.c ****     __HAL_DMA_CLEAR_FLAG (hdma, __HAL_DMA_GET_FE_FLAG_INDEX(hdma));
 808              		.loc 1 199 5 discriminator 18 view .LVU223
 809 030e 4FF48072 		mov	r2, #256
 810 0312 E7E7     		b	.L45
 811              	.L129:
 812              		.align	2
 813              	.L128:
 814 0314 58640240 		.word	1073898584
 815 0318 00640240 		.word	1073898496
 816 031c B8600240 		.word	1073897656
 817 0320 58600240 		.word	1073897560
 818 0324 00600240 		.word	1073897472
 819 0328 10600240 		.word	1073897488
 820              	.L44:
 199:Drivers/STM32F4xx_HAL_Driver/Src/stm32f4xx_hal_dma_ex.c ****     __HAL_DMA_CLEAR_FLAG (hdma, __HAL_DMA_GET_FE_FLAG_INDEX(hdma));
 821              		.loc 1 199 5 discriminator 2 view .LVU224
 822 032c 564A     		ldr	r2, .L130
 823 032e 9342     		cmp	r3, r2
 824 0330 15D9     		bls	.L47
 199:Drivers/STM32F4xx_HAL_Driver/Src/stm32f4xx_hal_dma_ex.c ****     __HAL_DMA_CLEAR_FLAG (hdma, __HAL_DMA_GET_FE_FLAG_INDEX(hdma));
 825              		.loc 1 199 5 discriminator 53 view .LVU225
ARM GAS  C:\Users\maari\AppData\Local\Temp\ccWaE7UA.s 			page 24


 826 0332 02F55672 		add	r2, r2, #856
 827 0336 9342     		cmp	r3, r2
 828 0338 0AD0     		beq	.L102
 199:Drivers/STM32F4xx_HAL_Driver/Src/stm32f4xx_hal_dma_ex.c ****     __HAL_DMA_CLEAR_FLAG (hdma, __HAL_DMA_GET_FE_FLAG_INDEX(hdma));
 829              		.loc 1 199 5 discriminator 61 view .LVU226
 830 033a 1832     		adds	r2, r2, #24
 831 033c 9342     		cmp	r3, r2
 832 033e 0BD0     		beq	.L103
 199:Drivers/STM32F4xx_HAL_Driver/Src/stm32f4xx_hal_dma_ex.c ****     __HAL_DMA_CLEAR_FLAG (hdma, __HAL_DMA_GET_FE_FLAG_INDEX(hdma));
 833              		.loc 1 199 5 discriminator 72 view .LVU227
 834 0340 1832     		adds	r2, r2, #24
 835 0342 9342     		cmp	r3, r2
 836 0344 14BF     		ite	ne
 837 0346 4FF08072 		movne	r2, #16777216
 838 034a 4FF48022 		moveq	r2, #262144
 839 034e 00E0     		b	.L48
 840              	.L102:
 199:Drivers/STM32F4xx_HAL_Driver/Src/stm32f4xx_hal_dma_ex.c ****     __HAL_DMA_CLEAR_FLAG (hdma, __HAL_DMA_GET_FE_FLAG_INDEX(hdma));
 841              		.loc 1 199 5 discriminator 56 view .LVU228
 842 0350 0422     		movs	r2, #4
 843              	.L48:
 199:Drivers/STM32F4xx_HAL_Driver/Src/stm32f4xx_hal_dma_ex.c ****     __HAL_DMA_CLEAR_FLAG (hdma, __HAL_DMA_GET_FE_FLAG_INDEX(hdma));
 844              		.loc 1 199 5 discriminator 100 view .LVU229
 845 0352 4E4B     		ldr	r3, .L130+4
 846 0354 9A60     		str	r2, [r3, #8]
 847 0356 C7E7     		b	.L46
 848              	.L103:
 199:Drivers/STM32F4xx_HAL_Driver/Src/stm32f4xx_hal_dma_ex.c ****     __HAL_DMA_CLEAR_FLAG (hdma, __HAL_DMA_GET_FE_FLAG_INDEX(hdma));
 849              		.loc 1 199 5 discriminator 64 view .LVU230
 850 0358 4FF48072 		mov	r2, #256
 851 035c F9E7     		b	.L48
 852              	.L47:
 199:Drivers/STM32F4xx_HAL_Driver/Src/stm32f4xx_hal_dma_ex.c ****     __HAL_DMA_CLEAR_FLAG (hdma, __HAL_DMA_GET_FE_FLAG_INDEX(hdma));
 853              		.loc 1 199 5 discriminator 52 view .LVU231
 854 035e 4C4A     		ldr	r2, .L130+8
 855 0360 9342     		cmp	r3, r2
 856 0362 14D9     		bls	.L49
 199:Drivers/STM32F4xx_HAL_Driver/Src/stm32f4xx_hal_dma_ex.c ****     __HAL_DMA_CLEAR_FLAG (hdma, __HAL_DMA_GET_FE_FLAG_INDEX(hdma));
 857              		.loc 1 199 5 discriminator 106 view .LVU232
 858 0364 1832     		adds	r2, r2, #24
 859 0366 9342     		cmp	r3, r2
 860 0368 0AD0     		beq	.L105
 199:Drivers/STM32F4xx_HAL_Driver/Src/stm32f4xx_hal_dma_ex.c ****     __HAL_DMA_CLEAR_FLAG (hdma, __HAL_DMA_GET_FE_FLAG_INDEX(hdma));
 861              		.loc 1 199 5 discriminator 114 view .LVU233
 862 036a 1832     		adds	r2, r2, #24
 863 036c 9342     		cmp	r3, r2
 864 036e 0BD0     		beq	.L106
 199:Drivers/STM32F4xx_HAL_Driver/Src/stm32f4xx_hal_dma_ex.c ****     __HAL_DMA_CLEAR_FLAG (hdma, __HAL_DMA_GET_FE_FLAG_INDEX(hdma));
 865              		.loc 1 199 5 discriminator 125 view .LVU234
 866 0370 1832     		adds	r2, r2, #24
 867 0372 9342     		cmp	r3, r2
 868 0374 14BF     		ite	ne
 869 0376 4FF08072 		movne	r2, #16777216
 870 037a 4FF48022 		moveq	r2, #262144
 871 037e 00E0     		b	.L50
 872              	.L105:
 199:Drivers/STM32F4xx_HAL_Driver/Src/stm32f4xx_hal_dma_ex.c ****     __HAL_DMA_CLEAR_FLAG (hdma, __HAL_DMA_GET_FE_FLAG_INDEX(hdma));
ARM GAS  C:\Users\maari\AppData\Local\Temp\ccWaE7UA.s 			page 25


 873              		.loc 1 199 5 discriminator 109 view .LVU235
 874 0380 0422     		movs	r2, #4
 875              	.L50:
 199:Drivers/STM32F4xx_HAL_Driver/Src/stm32f4xx_hal_dma_ex.c ****     __HAL_DMA_CLEAR_FLAG (hdma, __HAL_DMA_GET_FE_FLAG_INDEX(hdma));
 876              		.loc 1 199 5 discriminator 151 view .LVU236
 877 0382 444B     		ldr	r3, .L130+12
 878 0384 DA60     		str	r2, [r3, #12]
 879 0386 AFE7     		b	.L46
 880              	.L106:
 199:Drivers/STM32F4xx_HAL_Driver/Src/stm32f4xx_hal_dma_ex.c ****     __HAL_DMA_CLEAR_FLAG (hdma, __HAL_DMA_GET_FE_FLAG_INDEX(hdma));
 881              		.loc 1 199 5 discriminator 117 view .LVU237
 882 0388 4FF48072 		mov	r2, #256
 883 038c F9E7     		b	.L50
 884              	.L49:
 199:Drivers/STM32F4xx_HAL_Driver/Src/stm32f4xx_hal_dma_ex.c ****     __HAL_DMA_CLEAR_FLAG (hdma, __HAL_DMA_GET_FE_FLAG_INDEX(hdma));
 885              		.loc 1 199 5 discriminator 103 view .LVU238
 886 038e 424A     		ldr	r2, .L130+16
 887 0390 9342     		cmp	r3, r2
 888 0392 0AD0     		beq	.L108
 199:Drivers/STM32F4xx_HAL_Driver/Src/stm32f4xx_hal_dma_ex.c ****     __HAL_DMA_CLEAR_FLAG (hdma, __HAL_DMA_GET_FE_FLAG_INDEX(hdma));
 889              		.loc 1 199 5 discriminator 159 view .LVU239
 890 0394 1832     		adds	r2, r2, #24
 891 0396 9342     		cmp	r3, r2
 892 0398 0BD0     		beq	.L109
 199:Drivers/STM32F4xx_HAL_Driver/Src/stm32f4xx_hal_dma_ex.c ****     __HAL_DMA_CLEAR_FLAG (hdma, __HAL_DMA_GET_FE_FLAG_INDEX(hdma));
 893              		.loc 1 199 5 discriminator 170 view .LVU240
 894 039a 1832     		adds	r2, r2, #24
 895 039c 9342     		cmp	r3, r2
 896 039e 14BF     		ite	ne
 897 03a0 4FF08073 		movne	r3, #16777216
 898 03a4 4FF48023 		moveq	r3, #262144
 899 03a8 00E0     		b	.L51
 900              	.L108:
 199:Drivers/STM32F4xx_HAL_Driver/Src/stm32f4xx_hal_dma_ex.c ****     __HAL_DMA_CLEAR_FLAG (hdma, __HAL_DMA_GET_FE_FLAG_INDEX(hdma));
 901              		.loc 1 199 5 discriminator 154 view .LVU241
 902 03aa 0423     		movs	r3, #4
 903              	.L51:
 199:Drivers/STM32F4xx_HAL_Driver/Src/stm32f4xx_hal_dma_ex.c ****     __HAL_DMA_CLEAR_FLAG (hdma, __HAL_DMA_GET_FE_FLAG_INDEX(hdma));
 904              		.loc 1 199 5 discriminator 200 view .LVU242
 905 03ac 394A     		ldr	r2, .L130+12
 906 03ae 9360     		str	r3, [r2, #8]
 907 03b0 9AE7     		b	.L46
 908              	.L109:
 199:Drivers/STM32F4xx_HAL_Driver/Src/stm32f4xx_hal_dma_ex.c ****     __HAL_DMA_CLEAR_FLAG (hdma, __HAL_DMA_GET_FE_FLAG_INDEX(hdma));
 909              		.loc 1 199 5 discriminator 162 view .LVU243
 910 03b2 4FF48073 		mov	r3, #256
 911 03b6 F9E7     		b	.L51
 912              	.L111:
 200:Drivers/STM32F4xx_HAL_Driver/Src/stm32f4xx_hal_dma_ex.c **** 
 913              		.loc 1 200 5 discriminator 10 view .LVU244
 914 03b8 0122     		movs	r2, #1
 915              	.L53:
 200:Drivers/STM32F4xx_HAL_Driver/Src/stm32f4xx_hal_dma_ex.c **** 
 916              		.loc 1 200 5 discriminator 50 view .LVU245
 917 03ba 344B     		ldr	r3, .L130+4
 918 03bc DA60     		str	r2, [r3, #12]
 919              	.L54:
ARM GAS  C:\Users\maari\AppData\Local\Temp\ccWaE7UA.s 			page 26


 203:Drivers/STM32F4xx_HAL_Driver/Src/stm32f4xx_hal_dma_ex.c ****     hdma->Instance->FCR |= DMA_IT_FE;
 920              		.loc 1 203 5 is_stmt 1 view .LVU246
 203:Drivers/STM32F4xx_HAL_Driver/Src/stm32f4xx_hal_dma_ex.c ****     hdma->Instance->FCR |= DMA_IT_FE;
 921              		.loc 1 203 9 is_stmt 0 view .LVU247
 922 03be 0268     		ldr	r2, [r0]
 203:Drivers/STM32F4xx_HAL_Driver/Src/stm32f4xx_hal_dma_ex.c ****     hdma->Instance->FCR |= DMA_IT_FE;
 923              		.loc 1 203 19 view .LVU248
 924 03c0 1368     		ldr	r3, [r2]
 203:Drivers/STM32F4xx_HAL_Driver/Src/stm32f4xx_hal_dma_ex.c ****     hdma->Instance->FCR |= DMA_IT_FE;
 925              		.loc 1 203 25 view .LVU249
 926 03c2 43F01603 		orr	r3, r3, #22
 927 03c6 1360     		str	r3, [r2]
 204:Drivers/STM32F4xx_HAL_Driver/Src/stm32f4xx_hal_dma_ex.c ****     
 928              		.loc 1 204 5 is_stmt 1 view .LVU250
 204:Drivers/STM32F4xx_HAL_Driver/Src/stm32f4xx_hal_dma_ex.c ****     
 929              		.loc 1 204 9 is_stmt 0 view .LVU251
 930 03c8 0268     		ldr	r2, [r0]
 204:Drivers/STM32F4xx_HAL_Driver/Src/stm32f4xx_hal_dma_ex.c ****     
 931              		.loc 1 204 19 view .LVU252
 932 03ca 5369     		ldr	r3, [r2, #20]
 204:Drivers/STM32F4xx_HAL_Driver/Src/stm32f4xx_hal_dma_ex.c ****     
 933              		.loc 1 204 25 view .LVU253
 934 03cc 43F08003 		orr	r3, r3, #128
 935 03d0 5361     		str	r3, [r2, #20]
 206:Drivers/STM32F4xx_HAL_Driver/Src/stm32f4xx_hal_dma_ex.c ****     {
 936              		.loc 1 206 5 is_stmt 1 view .LVU254
 206:Drivers/STM32F4xx_HAL_Driver/Src/stm32f4xx_hal_dma_ex.c ****     {
 937              		.loc 1 206 7 is_stmt 0 view .LVU255
 938 03d2 036C     		ldr	r3, [r0, #64]
 939 03d4 002B     		cmp	r3, #0
 940 03d6 50D0     		beq	.L127
 941              	.L60:
 208:Drivers/STM32F4xx_HAL_Driver/Src/stm32f4xx_hal_dma_ex.c ****     }
 942              		.loc 1 208 7 is_stmt 1 view .LVU256
 208:Drivers/STM32F4xx_HAL_Driver/Src/stm32f4xx_hal_dma_ex.c ****     }
 943              		.loc 1 208 11 is_stmt 0 view .LVU257
 944 03d8 0268     		ldr	r2, [r0]
 208:Drivers/STM32F4xx_HAL_Driver/Src/stm32f4xx_hal_dma_ex.c ****     }
 945              		.loc 1 208 21 view .LVU258
 946 03da 1368     		ldr	r3, [r2]
 208:Drivers/STM32F4xx_HAL_Driver/Src/stm32f4xx_hal_dma_ex.c ****     }
 947              		.loc 1 208 27 view .LVU259
 948 03dc 43F00803 		orr	r3, r3, #8
 949 03e0 1360     		str	r3, [r2]
 950              	.L61:
 212:Drivers/STM32F4xx_HAL_Driver/Src/stm32f4xx_hal_dma_ex.c ****   }
 951              		.loc 1 212 5 is_stmt 1 view .LVU260
 952 03e2 0268     		ldr	r2, [r0]
 953 03e4 1368     		ldr	r3, [r2]
 954 03e6 43F00103 		orr	r3, r3, #1
 955 03ea 1360     		str	r3, [r2]
 156:Drivers/STM32F4xx_HAL_Driver/Src/stm32f4xx_hal_dma_ex.c ****   
 956              		.loc 1 156 21 is_stmt 0 view .LVU261
 957 03ec 0020     		movs	r0, #0
 958              	.LVL46:
 156:Drivers/STM32F4xx_HAL_Driver/Src/stm32f4xx_hal_dma_ex.c ****   
 959              		.loc 1 156 21 view .LVU262
ARM GAS  C:\Users\maari\AppData\Local\Temp\ccWaE7UA.s 			page 27


 960 03ee 2FE6     		b	.L14
 961              	.LVL47:
 962              	.L112:
 200:Drivers/STM32F4xx_HAL_Driver/Src/stm32f4xx_hal_dma_ex.c **** 
 963              		.loc 1 200 5 discriminator 18 view .LVU263
 964 03f0 4022     		movs	r2, #64
 965 03f2 E2E7     		b	.L53
 966              	.L52:
 200:Drivers/STM32F4xx_HAL_Driver/Src/stm32f4xx_hal_dma_ex.c **** 
 967              		.loc 1 200 5 discriminator 2 view .LVU264
 968 03f4 244A     		ldr	r2, .L130
 969 03f6 9342     		cmp	r3, r2
 970 03f8 14D9     		bls	.L55
 200:Drivers/STM32F4xx_HAL_Driver/Src/stm32f4xx_hal_dma_ex.c **** 
 971              		.loc 1 200 5 discriminator 53 view .LVU265
 972 03fa 02F55672 		add	r2, r2, #856
 973 03fe 9342     		cmp	r3, r2
 974 0400 0AD0     		beq	.L114
 200:Drivers/STM32F4xx_HAL_Driver/Src/stm32f4xx_hal_dma_ex.c **** 
 975              		.loc 1 200 5 discriminator 61 view .LVU266
 976 0402 1832     		adds	r2, r2, #24
 977 0404 9342     		cmp	r3, r2
 978 0406 0BD0     		beq	.L115
 200:Drivers/STM32F4xx_HAL_Driver/Src/stm32f4xx_hal_dma_ex.c **** 
 979              		.loc 1 200 5 discriminator 72 view .LVU267
 980 0408 1832     		adds	r2, r2, #24
 981 040a 9342     		cmp	r3, r2
 982 040c 14BF     		ite	ne
 983 040e 4FF48002 		movne	r2, #4194304
 984 0412 4FF48032 		moveq	r2, #65536
 985 0416 00E0     		b	.L56
 986              	.L114:
 200:Drivers/STM32F4xx_HAL_Driver/Src/stm32f4xx_hal_dma_ex.c **** 
 987              		.loc 1 200 5 discriminator 56 view .LVU268
 988 0418 0122     		movs	r2, #1
 989              	.L56:
 200:Drivers/STM32F4xx_HAL_Driver/Src/stm32f4xx_hal_dma_ex.c **** 
 990              		.loc 1 200 5 discriminator 100 view .LVU269
 991 041a 1C4B     		ldr	r3, .L130+4
 992 041c 9A60     		str	r2, [r3, #8]
 993 041e CEE7     		b	.L54
 994              	.L115:
 200:Drivers/STM32F4xx_HAL_Driver/Src/stm32f4xx_hal_dma_ex.c **** 
 995              		.loc 1 200 5 discriminator 64 view .LVU270
 996 0420 4022     		movs	r2, #64
 997 0422 FAE7     		b	.L56
 998              	.L55:
 200:Drivers/STM32F4xx_HAL_Driver/Src/stm32f4xx_hal_dma_ex.c **** 
 999              		.loc 1 200 5 discriminator 52 view .LVU271
 1000 0424 1A4A     		ldr	r2, .L130+8
 1001 0426 9342     		cmp	r3, r2
 1002 0428 13D9     		bls	.L57
 200:Drivers/STM32F4xx_HAL_Driver/Src/stm32f4xx_hal_dma_ex.c **** 
 1003              		.loc 1 200 5 discriminator 106 view .LVU272
 1004 042a 1832     		adds	r2, r2, #24
 1005 042c 9342     		cmp	r3, r2
 1006 042e 0AD0     		beq	.L117
ARM GAS  C:\Users\maari\AppData\Local\Temp\ccWaE7UA.s 			page 28


 200:Drivers/STM32F4xx_HAL_Driver/Src/stm32f4xx_hal_dma_ex.c **** 
 1007              		.loc 1 200 5 discriminator 114 view .LVU273
 1008 0430 1832     		adds	r2, r2, #24
 1009 0432 9342     		cmp	r3, r2
 1010 0434 0BD0     		beq	.L118
 200:Drivers/STM32F4xx_HAL_Driver/Src/stm32f4xx_hal_dma_ex.c **** 
 1011              		.loc 1 200 5 discriminator 125 view .LVU274
 1012 0436 1832     		adds	r2, r2, #24
 1013 0438 9342     		cmp	r3, r2
 1014 043a 14BF     		ite	ne
 1015 043c 4FF48002 		movne	r2, #4194304
 1016 0440 4FF48032 		moveq	r2, #65536
 1017 0444 00E0     		b	.L58
 1018              	.L117:
 200:Drivers/STM32F4xx_HAL_Driver/Src/stm32f4xx_hal_dma_ex.c **** 
 1019              		.loc 1 200 5 discriminator 109 view .LVU275
 1020 0446 0122     		movs	r2, #1
 1021              	.L58:
 200:Drivers/STM32F4xx_HAL_Driver/Src/stm32f4xx_hal_dma_ex.c **** 
 1022              		.loc 1 200 5 discriminator 151 view .LVU276
 1023 0448 124B     		ldr	r3, .L130+12
 1024 044a DA60     		str	r2, [r3, #12]
 1025 044c B7E7     		b	.L54
 1026              	.L118:
 200:Drivers/STM32F4xx_HAL_Driver/Src/stm32f4xx_hal_dma_ex.c **** 
 1027              		.loc 1 200 5 discriminator 117 view .LVU277
 1028 044e 4022     		movs	r2, #64
 1029 0450 FAE7     		b	.L58
 1030              	.L57:
 200:Drivers/STM32F4xx_HAL_Driver/Src/stm32f4xx_hal_dma_ex.c **** 
 1031              		.loc 1 200 5 discriminator 103 view .LVU278
 1032 0452 114A     		ldr	r2, .L130+16
 1033 0454 9342     		cmp	r3, r2
 1034 0456 0AD0     		beq	.L120
 200:Drivers/STM32F4xx_HAL_Driver/Src/stm32f4xx_hal_dma_ex.c **** 
 1035              		.loc 1 200 5 discriminator 159 view .LVU279
 1036 0458 1832     		adds	r2, r2, #24
 1037 045a 9342     		cmp	r3, r2
 1038 045c 0BD0     		beq	.L121
 200:Drivers/STM32F4xx_HAL_Driver/Src/stm32f4xx_hal_dma_ex.c **** 
 1039              		.loc 1 200 5 discriminator 170 view .LVU280
 1040 045e 1832     		adds	r2, r2, #24
 1041 0460 9342     		cmp	r3, r2
 1042 0462 14BF     		ite	ne
 1043 0464 4FF48003 		movne	r3, #4194304
 1044 0468 4FF48033 		moveq	r3, #65536
 1045 046c 00E0     		b	.L59
 1046              	.L120:
 200:Drivers/STM32F4xx_HAL_Driver/Src/stm32f4xx_hal_dma_ex.c **** 
 1047              		.loc 1 200 5 discriminator 154 view .LVU281
 1048 046e 0123     		movs	r3, #1
 1049              	.L59:
 200:Drivers/STM32F4xx_HAL_Driver/Src/stm32f4xx_hal_dma_ex.c **** 
 1050              		.loc 1 200 5 discriminator 200 view .LVU282
 1051 0470 084A     		ldr	r2, .L130+12
 1052 0472 9360     		str	r3, [r2, #8]
 1053 0474 A3E7     		b	.L54
ARM GAS  C:\Users\maari\AppData\Local\Temp\ccWaE7UA.s 			page 29


 1054              	.L121:
 200:Drivers/STM32F4xx_HAL_Driver/Src/stm32f4xx_hal_dma_ex.c **** 
 1055              		.loc 1 200 5 discriminator 162 view .LVU283
 1056 0476 4023     		movs	r3, #64
 1057 0478 FAE7     		b	.L59
 1058              	.L127:
 206:Drivers/STM32F4xx_HAL_Driver/Src/stm32f4xx_hal_dma_ex.c ****     {
 1059              		.loc 1 206 45 discriminator 1 view .LVU284
 1060 047a 836C     		ldr	r3, [r0, #72]
 1061 047c 002B     		cmp	r3, #0
 1062 047e ABD1     		bne	.L60
 1063 0480 AFE7     		b	.L61
 1064              	.LVL48:
 1065              	.L62:
 176:Drivers/STM32F4xx_HAL_Driver/Src/stm32f4xx_hal_dma_ex.c ****   
 1066              		.loc 1 176 3 discriminator 1 view .LVU285
 1067 0482 0220     		movs	r0, #2
 1068              	.LVL49:
 176:Drivers/STM32F4xx_HAL_Driver/Src/stm32f4xx_hal_dma_ex.c ****   
 1069              		.loc 1 176 3 discriminator 1 view .LVU286
 1070 0484 E4E5     		b	.L14
 1071              	.L131:
 1072 0486 00BF     		.align	2
 1073              	.L130:
 1074 0488 B8600240 		.word	1073897656
 1075 048c 00640240 		.word	1073898496
 1076 0490 58600240 		.word	1073897560
 1077 0494 00600240 		.word	1073897472
 1078 0498 10600240 		.word	1073897488
 1079              		.cfi_endproc
 1080              	.LFE135:
 1082              		.section	.text.HAL_DMAEx_ChangeMemory,"ax",%progbits
 1083              		.align	1
 1084              		.global	HAL_DMAEx_ChangeMemory
 1085              		.syntax unified
 1086              		.thumb
 1087              		.thumb_func
 1089              	HAL_DMAEx_ChangeMemory:
 1090              	.LVL50:
 1091              	.LFB136:
 240:Drivers/STM32F4xx_HAL_Driver/Src/stm32f4xx_hal_dma_ex.c ****   if(memory == MEMORY0)
 1092              		.loc 1 240 1 is_stmt 1 view -0
 1093              		.cfi_startproc
 1094              		@ args = 0, pretend = 0, frame = 0
 1095              		@ frame_needed = 0, uses_anonymous_args = 0
 1096              		@ link register save eliminated.
 241:Drivers/STM32F4xx_HAL_Driver/Src/stm32f4xx_hal_dma_ex.c ****   {
 1097              		.loc 1 241 3 view .LVU288
 241:Drivers/STM32F4xx_HAL_Driver/Src/stm32f4xx_hal_dma_ex.c ****   {
 1098              		.loc 1 241 5 is_stmt 0 view .LVU289
 1099 0000 1AB9     		cbnz	r2, .L133
 244:Drivers/STM32F4xx_HAL_Driver/Src/stm32f4xx_hal_dma_ex.c ****   }
 1100              		.loc 1 244 5 is_stmt 1 view .LVU290
 244:Drivers/STM32F4xx_HAL_Driver/Src/stm32f4xx_hal_dma_ex.c ****   }
 1101              		.loc 1 244 9 is_stmt 0 view .LVU291
 1102 0002 0368     		ldr	r3, [r0]
 244:Drivers/STM32F4xx_HAL_Driver/Src/stm32f4xx_hal_dma_ex.c ****   }
ARM GAS  C:\Users\maari\AppData\Local\Temp\ccWaE7UA.s 			page 30


 1103              		.loc 1 244 26 view .LVU292
 1104 0004 D960     		str	r1, [r3, #12]
 1105              	.L134:
 252:Drivers/STM32F4xx_HAL_Driver/Src/stm32f4xx_hal_dma_ex.c **** }
 1106              		.loc 1 252 3 is_stmt 1 view .LVU293
 253:Drivers/STM32F4xx_HAL_Driver/Src/stm32f4xx_hal_dma_ex.c **** 
 1107              		.loc 1 253 1 is_stmt 0 view .LVU294
 1108 0006 0020     		movs	r0, #0
 1109              	.LVL51:
 253:Drivers/STM32F4xx_HAL_Driver/Src/stm32f4xx_hal_dma_ex.c **** 
 1110              		.loc 1 253 1 view .LVU295
 1111 0008 7047     		bx	lr
 1112              	.LVL52:
 1113              	.L133:
 249:Drivers/STM32F4xx_HAL_Driver/Src/stm32f4xx_hal_dma_ex.c ****   }
 1114              		.loc 1 249 5 is_stmt 1 view .LVU296
 249:Drivers/STM32F4xx_HAL_Driver/Src/stm32f4xx_hal_dma_ex.c ****   }
 1115              		.loc 1 249 9 is_stmt 0 view .LVU297
 1116 000a 0368     		ldr	r3, [r0]
 249:Drivers/STM32F4xx_HAL_Driver/Src/stm32f4xx_hal_dma_ex.c ****   }
 1117              		.loc 1 249 26 view .LVU298
 1118 000c 1961     		str	r1, [r3, #16]
 1119 000e FAE7     		b	.L134
 1120              		.cfi_endproc
 1121              	.LFE136:
 1123              		.text
 1124              	.Letext0:
 1125              		.file 2 "C:\\ST\\STM32CubeIDE_1.19.0\\STM32CubeIDE\\plugins\\com.st.stm32cube.ide.mcu.externaltool
 1126              		.file 3 "C:\\ST\\STM32CubeIDE_1.19.0\\STM32CubeIDE\\plugins\\com.st.stm32cube.ide.mcu.externaltool
 1127              		.file 4 "Drivers/CMSIS/Device/ST/STM32F4xx/Include/stm32f446xx.h"
 1128              		.file 5 "Drivers/STM32F4xx_HAL_Driver/Inc/stm32f4xx_hal_def.h"
 1129              		.file 6 "Drivers/STM32F4xx_HAL_Driver/Inc/stm32f4xx_hal_dma.h"
 1130              		.file 7 "Drivers/STM32F4xx_HAL_Driver/Inc/stm32f4xx_hal_dma_ex.h"
ARM GAS  C:\Users\maari\AppData\Local\Temp\ccWaE7UA.s 			page 31

