ARM GAS  C:\Users\maari\AppData\Local\Temp\ccZYJnBB.s 			page 1


   1              		.cpu cortex-m0
   2              		.arch armv6s-m
   3              		.fpu softvfp
   4              		.eabi_attribute 20, 1
   5              		.eabi_attribute 21, 1
   6              		.eabi_attribute 23, 3
   7              		.eabi_attribute 24, 1
   8              		.eabi_attribute 25, 1
   9              		.eabi_attribute 26, 1
  10              		.eabi_attribute 30, 2
  11              		.eabi_attribute 34, 0
  12              		.eabi_attribute 18, 4
  13              		.file	"main.c"
  14              		.text
  15              	.Ltext0:
  16              		.cfi_sections	.debug_frame
  17              		.file 1 "Core/Src/main.c"
  18              		.section	.text.SystemClock_Config,"ax",%progbits
  19              		.align	1
  20              		.p2align 2,,3
  21              		.global	SystemClock_Config
  22              		.syntax unified
  23              		.code	16
  24              		.thumb_func
  26              	SystemClock_Config:
  27              	.LFB44:
   1:Core/Src/main.c **** /* USER CODE BEGIN Header */
   2:Core/Src/main.c **** /**
   3:Core/Src/main.c ****   ******************************************************************************
   4:Core/Src/main.c ****   * @file           : main.c
   5:Core/Src/main.c ****   * @brief          : Main program body
   6:Core/Src/main.c ****   ******************************************************************************
   7:Core/Src/main.c ****   * @attention
   8:Core/Src/main.c ****   *
   9:Core/Src/main.c ****   * Copyright (c) 2025 STMicroelectronics.
  10:Core/Src/main.c ****   * All rights reserved.
  11:Core/Src/main.c ****   *
  12:Core/Src/main.c ****   * This software is licensed under terms that can be found in the LICENSE file
  13:Core/Src/main.c ****   * in the root directory of this software component.
  14:Core/Src/main.c ****   * If no LICENSE file comes with this software, it is provided AS-IS.
  15:Core/Src/main.c ****   *
  16:Core/Src/main.c ****   ******************************************************************************
  17:Core/Src/main.c ****   */
  18:Core/Src/main.c **** /* USER CODE END Header */
  19:Core/Src/main.c **** /* Includes ------------------------------------------------------------------*/
  20:Core/Src/main.c **** #include "main.h"
  21:Core/Src/main.c **** #include "stm32f0xx_hal.h"
  22:Core/Src/main.c **** #include <stdint.h>
  23:Core/Src/main.c **** #include <stdio.h>
  24:Core/Src/main.c **** 
  25:Core/Src/main.c **** /* Private includes ----------------------------------------------------------*/
  26:Core/Src/main.c **** /* USER CODE BEGIN Includes */
  27:Core/Src/main.c **** 
  28:Core/Src/main.c **** /* USER CODE END Includes */
  29:Core/Src/main.c **** 
  30:Core/Src/main.c **** /* Private typedef -----------------------------------------------------------*/
  31:Core/Src/main.c **** /* USER CODE BEGIN PTD */
ARM GAS  C:\Users\maari\AppData\Local\Temp\ccZYJnBB.s 			page 2


  32:Core/Src/main.c **** 
  33:Core/Src/main.c **** /* USER CODE END PTD */
  34:Core/Src/main.c **** 
  35:Core/Src/main.c **** /* Private define ------------------------------------------------------------*/
  36:Core/Src/main.c **** /* USER CODE BEGIN PD */
  37:Core/Src/main.c **** #define MAX_ITER 100
  38:Core/Src/main.c **** #define SCALE 1000000
  39:Core/Src/main.c **** 
  40:Core/Src/main.c **** // for bit shifting in the fixed point arithmetic function
  41:Core/Src/main.c **** #define Q   16			// scale factor
  42:Core/Src/main.c **** #define ONE (1 << Q)	// division by scale factor
  43:Core/Src/main.c **** 
  44:Core/Src/main.c **** /* USER CODE END PD */
  45:Core/Src/main.c **** 
  46:Core/Src/main.c **** /* Private macro -------------------------------------------------------------*/
  47:Core/Src/main.c **** /* USER CODE BEGIN PM */
  48:Core/Src/main.c **** 
  49:Core/Src/main.c **** /* USER CODE END PM */
  50:Core/Src/main.c **** 
  51:Core/Src/main.c **** /* Private variables ---------------------------------------------------------*/
  52:Core/Src/main.c **** 
  53:Core/Src/main.c **** /* USER CODE BEGIN PV */
  54:Core/Src/main.c **** //TODO: Define variables you think you might need
  55:Core/Src/main.c **** // - Performance timing variables (e.g execution time, throughput, pixels per second, clock cycles)
  56:Core/Src/main.c **** uint64_t start_time = 0;
  57:Core/Src/main.c **** uint64_t end_time = 0;
  58:Core/Src/main.c **** int imageDimensions[5] = {128, 160, 192, 224, 256};
  59:Core/Src/main.c **** uint64_t checksum = 0;
  60:Core/Src/main.c **** uint64_t execution_time = 0;
  61:Core/Src/main.c **** int initial_height = 224;
  62:Core/Src/main.c **** int initial_width = 224;
  63:Core/Src/main.c **** 
  64:Core/Src/main.c **** //volatile uint64_t cycles;
  65:Core/Src/main.c **** //volatile double throughput;
  66:Core/Src/main.c **** uint32_t runtime = 0;
  67:Core/Src/main.c **** /* USER CODE END PV */
  68:Core/Src/main.c **** 
  69:Core/Src/main.c **** /* Private function prototypes -----------------------------------------------*/
  70:Core/Src/main.c **** void SystemClock_Config(void);
  71:Core/Src/main.c **** static void MX_GPIO_Init(void);
  72:Core/Src/main.c **** /* USER CODE BEGIN PFP */
  73:Core/Src/main.c **** //TODO: Define any function prototypes you might need such as the calculate Mandelbrot function amo
  74:Core/Src/main.c **** uint64_t calculate_mandelbrot_fixed_point_arithmetic(int width, int height, int max_iterations);
  75:Core/Src/main.c **** uint64_t calculate_mandelbrot_double(int width, int height, int max_iterations);
  76:Core/Src/main.c **** static inline void cycle_counter_init(void);
  77:Core/Src/main.c **** static inline uint32_t cycle_counter_get(void);
  78:Core/Src/main.c **** static inline uint64_t cycle_diff(uint32_t start, uint32_t end);
  79:Core/Src/main.c **** /* USER CODE END PFP */
  80:Core/Src/main.c **** 
  81:Core/Src/main.c **** /* Private user code ---------------------------------------------------------*/
  82:Core/Src/main.c **** /* USER CODE BEGIN 0 */
  83:Core/Src/main.c **** 
  84:Core/Src/main.c **** /* USER CODE END 0 */
  85:Core/Src/main.c **** 
  86:Core/Src/main.c **** /**
  87:Core/Src/main.c ****   * @brief  The application entry point.
  88:Core/Src/main.c ****   * @retval int
ARM GAS  C:\Users\maari\AppData\Local\Temp\ccZYJnBB.s 			page 3


  89:Core/Src/main.c ****   */
  90:Core/Src/main.c **** int main(void)
  91:Core/Src/main.c **** {
  92:Core/Src/main.c **** 
  93:Core/Src/main.c ****   /* USER CODE BEGIN 1 */
  94:Core/Src/main.c **** 
  95:Core/Src/main.c ****   /* USER CODE END 1 */
  96:Core/Src/main.c **** 
  97:Core/Src/main.c ****   /* MCU Configuration--------------------------------------------------------*/
  98:Core/Src/main.c **** 
  99:Core/Src/main.c ****   /* Reset of all peripherals, Initializes the Flash interface and the Systick. */
 100:Core/Src/main.c ****   HAL_Init();
 101:Core/Src/main.c **** 
 102:Core/Src/main.c ****   /* USER CODE BEGIN Init */
 103:Core/Src/main.c **** 
 104:Core/Src/main.c ****   /* USER CODE END Init */
 105:Core/Src/main.c **** 
 106:Core/Src/main.c ****   /* Configure the system clock */
 107:Core/Src/main.c ****   SystemClock_Config();
 108:Core/Src/main.c **** 
 109:Core/Src/main.c ****   /* USER CODE BEGIN SysInit */
 110:Core/Src/main.c **** 
 111:Core/Src/main.c ****   /* USER CODE END SysInit */
 112:Core/Src/main.c **** 
 113:Core/Src/main.c ****   /* Initialize all configured peripherals */
 114:Core/Src/main.c ****   MX_GPIO_Init();
 115:Core/Src/main.c ****   /* USER CODE BEGIN 2 */
 116:Core/Src/main.c **** 
 117:Core/Src/main.c ****   uint32_t pixels = initial_height*initial_width;
 118:Core/Src/main.c **** 
 119:Core/Src/main.c ****   for(int i = 0; i< 5; i++)
 120:Core/Src/main.c ****   {
 121:Core/Src/main.c **** 
 122:Core/Src/main.c **** 
 123:Core/Src/main.c ****   cycle_counter_init();
 124:Core/Src/main.c ****   start_time = HAL_GetTick();
 125:Core/Src/main.c **** 
 126:Core/Src/main.c ****   //getting the start cycle to get the cycle count
 127:Core/Src/main.c ****   uint32_t start_cycle = cycle_counter_get();
 128:Core/Src/main.c **** 
 129:Core/Src/main.c **** 
 130:Core/Src/main.c ****       //TODO: Call the Mandelbrot Function and store the output in the checksum variable defined in
 131:Core/Src/main.c ****   checksum = calculate_mandelbrot_fixed_point_arithmetic(imageDimensions[i], imageDimensions[i], MA
 132:Core/Src/main.c ****   //checksum = calculate_mandelbrot_double(initial_width, initial_height, MAX_ITER);
 133:Core/Src/main.c **** 
 134:Core/Src/main.c ****       //TODO: Record the end time
 135:Core/Src/main.c ****   end_time = HAL_GetTick();
 136:Core/Src/main.c **** 
 137:Core/Src/main.c **** 
 138:Core/Src/main.c **** 
 139:Core/Src/main.c **** 
 140:Core/Src/main.c ****      //getting the end cycle to get the cycle count
 141:Core/Src/main.c ****   uint32_t end_cycle = cycle_counter_get();
 142:Core/Src/main.c **** 
 143:Core/Src/main.c ****   //cycles = cycle_diff(start_cycle,end_cycle);
 144:Core/Src/main.c **** 
 145:Core/Src/main.c ****   //TODO: Calculate the execution time
ARM GAS  C:\Users\maari\AppData\Local\Temp\ccZYJnBB.s 			page 4


 146:Core/Src/main.c ****   execution_time = end_time - start_time;
 147:Core/Src/main.c **** 
 148:Core/Src/main.c ****   //throughput = (double)pixels / ((double)execution_time / 1000.0);
 149:Core/Src/main.c **** 
 150:Core/Src/main.c ****   /* USER CODE END 2 */
 151:Core/Src/main.c **** 
 152:Core/Src/main.c ****   /* Infinite loop */
 153:Core/Src/main.c ****   /* USER CODE BEGIN WHILE */
 154:Core/Src/main.c **** 
 155:Core/Src/main.c **** 
 156:Core/Src/main.c **** 
 157:Core/Src/main.c ****   }
 158:Core/Src/main.c ****   runtime = HAL_GetTick();
 159:Core/Src/main.c ****   while (1)
 160:Core/Src/main.c ****   {
 161:Core/Src/main.c ****     /* USER CODE END WHILE */
 162:Core/Src/main.c **** 
 163:Core/Src/main.c ****     /* USER CODE BEGIN 3 */
 164:Core/Src/main.c **** 	  //TODO: Visual indicator: Turn on LED0 to signal processing start
 165:Core/Src/main.c **** 	  	  HAL_GPIO_WritePin(GPIOB, GPIO_PIN_0, GPIO_PIN_SET);
 166:Core/Src/main.c **** 
 167:Core/Src/main.c **** 
 168:Core/Src/main.c **** 	  	  //TODO: Benchmark and Profile Performance
 169:Core/Src/main.c **** 
 170:Core/Src/main.c **** 
 171:Core/Src/main.c **** 	  	  //TODO: Visual indicator: Turn on LED1 to signal processing start
 172:Core/Src/main.c **** 	  	  HAL_GPIO_WritePin(GPIOB, GPIO_PIN_1, GPIO_PIN_SET);
 173:Core/Src/main.c **** 
 174:Core/Src/main.c **** 
 175:Core/Src/main.c **** 	  	  //TODO: Keep the LEDs ON for 2s
 176:Core/Src/main.c **** 	  	  HAL_Delay(1000);
 177:Core/Src/main.c **** 
 178:Core/Src/main.c **** 	  	  //TODO: Turn OFF LEDs
 179:Core/Src/main.c **** 	  	  HAL_GPIO_WritePin(GPIOB, GPIO_PIN_0, GPIO_PIN_RESET);
 180:Core/Src/main.c **** 	  	  HAL_GPIO_WritePin(GPIOB, GPIO_PIN_1, GPIO_PIN_RESET);
 181:Core/Src/main.c **** 
 182:Core/Src/main.c **** 
 183:Core/Src/main.c **** 
 184:Core/Src/main.c ****   }
 185:Core/Src/main.c ****   /* USER CODE END 3 */
 186:Core/Src/main.c **** }
 187:Core/Src/main.c **** 
 188:Core/Src/main.c **** /**
 189:Core/Src/main.c ****   * @brief System Clock Configuration
 190:Core/Src/main.c ****   * @retval None
 191:Core/Src/main.c ****   */
 192:Core/Src/main.c **** void SystemClock_Config(void)
 193:Core/Src/main.c **** {
  28              		.loc 1 193 1 view -0
  29              		.cfi_startproc
  30              		@ args = 0, pretend = 0, frame = 64
  31              		@ frame_needed = 0, uses_anonymous_args = 0
 194:Core/Src/main.c ****   RCC_OscInitTypeDef RCC_OscInitStruct = {0};
  32              		.loc 1 194 3 view .LVU1
 193:Core/Src/main.c ****   RCC_OscInitTypeDef RCC_OscInitStruct = {0};
  33              		.loc 1 193 1 is_stmt 0 view .LVU2
  34 0000 00B5     		push	{lr}
ARM GAS  C:\Users\maari\AppData\Local\Temp\ccZYJnBB.s 			page 5


  35              	.LCFI0:
  36              		.cfi_def_cfa_offset 4
  37              		.cfi_offset 14, -4
  38 0002 91B0     		sub	sp, sp, #68
  39              	.LCFI1:
  40              		.cfi_def_cfa_offset 72
  41              		.loc 1 194 22 view .LVU3
  42 0004 2C22     		movs	r2, #44
  43 0006 0021     		movs	r1, #0
  44 0008 05A8     		add	r0, sp, #20
  45 000a FFF7FEFF 		bl	memset
  46              	.LVL0:
 195:Core/Src/main.c ****   RCC_ClkInitTypeDef RCC_ClkInitStruct = {0};
  47              		.loc 1 195 3 is_stmt 1 view .LVU4
  48              		.loc 1 195 22 is_stmt 0 view .LVU5
  49 000e 1022     		movs	r2, #16
  50 0010 0021     		movs	r1, #0
  51 0012 6846     		mov	r0, sp
  52 0014 FFF7FEFF 		bl	memset
  53              	.LVL1:
 196:Core/Src/main.c **** 
 197:Core/Src/main.c ****   /** Initializes the RCC Oscillators according to the specified parameters
 198:Core/Src/main.c ****   * in the RCC_OscInitTypeDef structure.
 199:Core/Src/main.c ****   */
 200:Core/Src/main.c ****   RCC_OscInitStruct.OscillatorType = RCC_OSCILLATORTYPE_HSI;
  54              		.loc 1 200 3 is_stmt 1 view .LVU6
  55              		.loc 1 200 36 is_stmt 0 view .LVU7
  56 0018 0223     		movs	r3, #2
 201:Core/Src/main.c ****   RCC_OscInitStruct.HSIState = RCC_HSI_ON;
  57              		.loc 1 201 30 view .LVU8
  58 001a 0122     		movs	r2, #1
 200:Core/Src/main.c ****   RCC_OscInitStruct.HSIState = RCC_HSI_ON;
  59              		.loc 1 200 36 view .LVU9
  60 001c 0493     		str	r3, [sp, #16]
  61              		.loc 1 201 3 is_stmt 1 view .LVU10
 202:Core/Src/main.c ****   RCC_OscInitStruct.HSICalibrationValue = RCC_HSICALIBRATION_DEFAULT;
 203:Core/Src/main.c ****   RCC_OscInitStruct.PLL.PLLState = RCC_PLL_ON;
  62              		.loc 1 203 34 is_stmt 0 view .LVU11
  63 001e 0C93     		str	r3, [sp, #48]
 204:Core/Src/main.c ****   RCC_OscInitStruct.PLL.PLLSource = RCC_PLLSOURCE_HSI;
 205:Core/Src/main.c ****   RCC_OscInitStruct.PLL.PLLMUL = RCC_PLL_MUL12;
  64              		.loc 1 205 32 view .LVU12
  65 0020 A023     		movs	r3, #160
 201:Core/Src/main.c ****   RCC_OscInitStruct.HSICalibrationValue = RCC_HSICALIBRATION_DEFAULT;
  66              		.loc 1 201 30 view .LVU13
  67 0022 0792     		str	r2, [sp, #28]
 202:Core/Src/main.c ****   RCC_OscInitStruct.HSICalibrationValue = RCC_HSICALIBRATION_DEFAULT;
  68              		.loc 1 202 3 is_stmt 1 view .LVU14
  69              		.loc 1 205 32 is_stmt 0 view .LVU15
  70 0024 9B03     		lsls	r3, r3, #14
 202:Core/Src/main.c ****   RCC_OscInitStruct.HSICalibrationValue = RCC_HSICALIBRATION_DEFAULT;
  71              		.loc 1 202 41 view .LVU16
  72 0026 0F32     		adds	r2, r2, #15
 206:Core/Src/main.c ****   RCC_OscInitStruct.PLL.PREDIV = RCC_PREDIV_DIV1;
 207:Core/Src/main.c ****   if (HAL_RCC_OscConfig(&RCC_OscInitStruct) != HAL_OK)
  73              		.loc 1 207 7 view .LVU17
  74 0028 04A8     		add	r0, sp, #16
ARM GAS  C:\Users\maari\AppData\Local\Temp\ccZYJnBB.s 			page 6


 202:Core/Src/main.c ****   RCC_OscInitStruct.PLL.PLLState = RCC_PLL_ON;
  75              		.loc 1 202 41 view .LVU18
  76 002a 0892     		str	r2, [sp, #32]
 203:Core/Src/main.c ****   RCC_OscInitStruct.PLL.PLLSource = RCC_PLLSOURCE_HSI;
  77              		.loc 1 203 3 is_stmt 1 view .LVU19
 204:Core/Src/main.c ****   RCC_OscInitStruct.PLL.PLLMUL = RCC_PLL_MUL12;
  78              		.loc 1 204 3 view .LVU20
 205:Core/Src/main.c ****   RCC_OscInitStruct.PLL.PREDIV = RCC_PREDIV_DIV1;
  79              		.loc 1 205 3 view .LVU21
 205:Core/Src/main.c ****   RCC_OscInitStruct.PLL.PREDIV = RCC_PREDIV_DIV1;
  80              		.loc 1 205 32 is_stmt 0 view .LVU22
  81 002c 0E93     		str	r3, [sp, #56]
 206:Core/Src/main.c ****   if (HAL_RCC_OscConfig(&RCC_OscInitStruct) != HAL_OK)
  82              		.loc 1 206 3 is_stmt 1 view .LVU23
  83              		.loc 1 207 3 view .LVU24
  84              		.loc 1 207 7 is_stmt 0 view .LVU25
  85 002e FFF7FEFF 		bl	HAL_RCC_OscConfig
  86              	.LVL2:
  87              		.loc 1 207 6 discriminator 1 view .LVU26
  88 0032 0028     		cmp	r0, #0
  89 0034 01D0     		beq	.L2
 208:Core/Src/main.c ****   {
 209:Core/Src/main.c ****     Error_Handler();
  90              		.loc 1 209 5 is_stmt 1 view .LVU27
  91              	.LBB21:
  92              	.LBI21:
 210:Core/Src/main.c ****   }
 211:Core/Src/main.c **** 
 212:Core/Src/main.c ****   /** Initializes the CPU, AHB and APB buses clocks
 213:Core/Src/main.c ****   */
 214:Core/Src/main.c ****   RCC_ClkInitStruct.ClockType = RCC_CLOCKTYPE_HCLK|RCC_CLOCKTYPE_SYSCLK
 215:Core/Src/main.c ****                               |RCC_CLOCKTYPE_PCLK1;
 216:Core/Src/main.c ****   RCC_ClkInitStruct.SYSCLKSource = RCC_SYSCLKSOURCE_PLLCLK;
 217:Core/Src/main.c ****   RCC_ClkInitStruct.AHBCLKDivider = RCC_SYSCLK_DIV1;
 218:Core/Src/main.c ****   RCC_ClkInitStruct.APB1CLKDivider = RCC_HCLK_DIV1;
 219:Core/Src/main.c **** 
 220:Core/Src/main.c ****   if (HAL_RCC_ClockConfig(&RCC_ClkInitStruct, FLASH_LATENCY_1) != HAL_OK)
 221:Core/Src/main.c ****   {
 222:Core/Src/main.c ****     Error_Handler();
 223:Core/Src/main.c ****   }
 224:Core/Src/main.c **** }
 225:Core/Src/main.c **** 
 226:Core/Src/main.c **** /**
 227:Core/Src/main.c ****   * @brief GPIO Initialization Function
 228:Core/Src/main.c ****   * @param None
 229:Core/Src/main.c ****   * @retval None
 230:Core/Src/main.c ****   */
 231:Core/Src/main.c **** static void MX_GPIO_Init(void)
 232:Core/Src/main.c **** {
 233:Core/Src/main.c ****   GPIO_InitTypeDef GPIO_InitStruct = {0};
 234:Core/Src/main.c ****   /* USER CODE BEGIN MX_GPIO_Init_1 */
 235:Core/Src/main.c **** 
 236:Core/Src/main.c ****   /* USER CODE END MX_GPIO_Init_1 */
 237:Core/Src/main.c **** 
 238:Core/Src/main.c ****   /* GPIO Ports Clock Enable */
 239:Core/Src/main.c ****   __HAL_RCC_GPIOF_CLK_ENABLE();
 240:Core/Src/main.c ****   __HAL_RCC_GPIOB_CLK_ENABLE();
ARM GAS  C:\Users\maari\AppData\Local\Temp\ccZYJnBB.s 			page 7


 241:Core/Src/main.c ****   __HAL_RCC_GPIOA_CLK_ENABLE();
 242:Core/Src/main.c **** 
 243:Core/Src/main.c ****   /*Configure GPIO pin Output Level */
 244:Core/Src/main.c ****   HAL_GPIO_WritePin(GPIOB, GPIO_PIN_0|GPIO_PIN_1|GPIO_PIN_2|GPIO_PIN_3
 245:Core/Src/main.c ****                           |GPIO_PIN_4|GPIO_PIN_5|GPIO_PIN_6|GPIO_PIN_7, GPIO_PIN_RESET);
 246:Core/Src/main.c **** 
 247:Core/Src/main.c ****   /*Configure GPIO pins : PB0 PB1 PB2 PB3
 248:Core/Src/main.c ****                            PB4 PB5 PB6 PB7 */
 249:Core/Src/main.c ****   GPIO_InitStruct.Pin = GPIO_PIN_0|GPIO_PIN_1|GPIO_PIN_2|GPIO_PIN_3
 250:Core/Src/main.c ****                           |GPIO_PIN_4|GPIO_PIN_5|GPIO_PIN_6|GPIO_PIN_7;
 251:Core/Src/main.c ****   GPIO_InitStruct.Mode = GPIO_MODE_OUTPUT_PP;
 252:Core/Src/main.c ****   GPIO_InitStruct.Pull = GPIO_NOPULL;
 253:Core/Src/main.c ****   GPIO_InitStruct.Speed = GPIO_SPEED_FREQ_LOW;
 254:Core/Src/main.c ****   HAL_GPIO_Init(GPIOB, &GPIO_InitStruct);
 255:Core/Src/main.c **** 
 256:Core/Src/main.c ****   /* USER CODE BEGIN MX_GPIO_Init_2 */
 257:Core/Src/main.c **** 
 258:Core/Src/main.c ****   /* USER CODE END MX_GPIO_Init_2 */
 259:Core/Src/main.c **** }
 260:Core/Src/main.c **** 
 261:Core/Src/main.c **** /* USER CODE BEGIN 4 */
 262:Core/Src/main.c **** //TODO: Function signatures you defined previously , implement them here
 263:Core/Src/main.c **** uint64_t calculate_mandelbrot_fixed_point_arithmetic(int width, int height, int max_iterations)
 264:Core/Src/main.c **** {
 265:Core/Src/main.c ****     uint64_t mandelbrot_sum = 0;
 266:Core/Src/main.c **** 
 267:Core/Src/main.c ****     // This function utilizes bit shifting to decreases the computational costs of division on deci
 268:Core/Src/main.c **** 
 269:Core/Src/main.c ****     // For the initial loop, x and y are zero so instead of computing it and lastly subtracting the
 270:Core/Src/main.c ****     // this code sets the initial starting point to the constant
 271:Core/Src/main.c ****     const int32_t x_left = -( (5 * ONE) / 2 ); // -2.5 as x starting point
 272:Core/Src/main.c ****     const int32_t y_top  = -ONE;               // -1.0 as y starting point
 273:Core/Src/main.c **** 
 274:Core/Src/main.c ****     // Instead of recomputing x*... and y*..., we just add the multiplication each loop as it would
 275:Core/Src/main.c ****     // This way addition uses less computational power than multiplication
 276:Core/Src/main.c ****     const int32_t x_step = (int32_t)(((int64_t)7 * ONE) / (2 * width));			// The 2 in the denominat
 277:Core/Src/main.c ****     const int32_t y_step = (int32_t)(((int64_t)2 * ONE) / height);				// Bit shift the top before d
 278:Core/Src/main.c **** 
 279:Core/Src/main.c ****     const int32_t FOUR = 4 * ONE;				// for condition in while loop
 280:Core/Src/main.c **** 
 281:Core/Src/main.c ****     int32_t y0 = y_top;				// starting constant
 282:Core/Src/main.c ****     for (int y = 0; y < height; ++y) {
 283:Core/Src/main.c ****         int32_t x0 = x_left;			// starting constant
 284:Core/Src/main.c **** 
 285:Core/Src/main.c ****         for (int x = 0; x < width; ++x) {
 286:Core/Src/main.c ****             int32_t xi = 0, yi = 0;
 287:Core/Src/main.c ****             int iteration = 0;
 288:Core/Src/main.c **** 
 289:Core/Src/main.c ****             while (iteration < max_iterations) {
 290:Core/Src/main.c ****                 int32_t xi2 = (int32_t)(((int64_t)xi * xi + (1 << (Q - 1))) >> Q);
 291:Core/Src/main.c ****                 int32_t yi2 = (int32_t)(((int64_t)yi * yi + (1 << (Q - 1))) >> Q);
 292:Core/Src/main.c **** 
 293:Core/Src/main.c ****                 // after calculating square values for this loop check if condition is still met
 294:Core/Src/main.c ****                 if ((int64_t)xi2 + yi2 > FOUR) break;
 295:Core/Src/main.c **** 
 296:Core/Src/main.c ****                 int32_t temp = xi2 - yi2 + x0;
 297:Core/Src/main.c **** 
ARM GAS  C:\Users\maari\AppData\Local\Temp\ccZYJnBB.s 			page 8


 298:Core/Src/main.c ****                 // Q is 2^16, so Q-1 = 2^15 to account for 2*xi*yi
 299:Core/Src/main.c ****                 yi = (int32_t)(((int64_t)xi * yi + (1 << (Q - 2))) >> (Q - 1)) + y0;
 300:Core/Src/main.c ****                 xi = temp;           // following mandelbrot.py
 301:Core/Src/main.c **** 
 302:Core/Src/main.c ****                 ++iteration;
 303:Core/Src/main.c ****             }
 304:Core/Src/main.c **** 
 305:Core/Src/main.c ****             mandelbrot_sum += iteration;
 306:Core/Src/main.c ****             x0 += x_step; // add step instead of multiplying new x value
 307:Core/Src/main.c ****         }
 308:Core/Src/main.c ****         y0 += y_step;     // add step instead of multiplying new y value
 309:Core/Src/main.c ****     }
 310:Core/Src/main.c **** 
 311:Core/Src/main.c ****     return mandelbrot_sum;
 312:Core/Src/main.c **** }
 313:Core/Src/main.c **** 
 314:Core/Src/main.c **** 
 315:Core/Src/main.c **** //TODO: Mandelbroat using variable type double
 316:Core/Src/main.c **** uint64_t calculate_mandelbrot_double(int width, int height, int max_iterations)
 317:Core/Src/main.c **** {
 318:Core/Src/main.c ****     uint64_t mandelbrot_sum = 0;
 319:Core/Src/main.c ****     //TODO: Complete the function implementation
 320:Core/Src/main.c ****     checksum = 0;
 321:Core/Src/main.c ****     for (int y = 0; y < height; y++)
 322:Core/Src/main.c ****     {
 323:Core/Src/main.c ****     	for (int x = 0; x < width ; x++)
 324:Core/Src/main.c ****     	{
 325:Core/Src/main.c ****     		double x_0 = ((double)x/width)*3.5 - 2.5;
 326:Core/Src/main.c ****     		double y_0 = (double)y/height * 2.0 - 1.0;
 327:Core/Src/main.c **** 
 328:Core/Src/main.c ****     		double x_i = 0;
 329:Core/Src/main.c ****     		double y_i = 0;
 330:Core/Src/main.c ****     		int iteration = 0;
 331:Core/Src/main.c **** 
 332:Core/Src/main.c **** 
 333:Core/Src/main.c ****     		while (iteration < max_iterations)
 334:Core/Src/main.c ****     		{
 335:Core/Src/main.c **** 
 336:Core/Src/main.c ****     			double x_i_sq = x_i*x_i;
 337:Core/Src/main.c ****     			double y_i_sq = y_i*y_i;
 338:Core/Src/main.c **** 
 339:Core/Src/main.c ****     			if(x_i_sq + y_i_sq > 4.0)
 340:Core/Src/main.c ****     			{
 341:Core/Src/main.c ****     				break;
 342:Core/Src/main.c ****     			}
 343:Core/Src/main.c ****     			double temp  = x_i_sq - y_i_sq;
 344:Core/Src/main.c ****     			y_i = 2.0*x_i*y_i + y_0;
 345:Core/Src/main.c **** 
 346:Core/Src/main.c ****     			x_i = temp + x_0;
 347:Core/Src/main.c **** 
 348:Core/Src/main.c ****     			iteration = iteration +1;
 349:Core/Src/main.c **** 
 350:Core/Src/main.c ****     		}
 351:Core/Src/main.c **** 
 352:Core/Src/main.c ****     		mandelbrot_sum = mandelbrot_sum + iteration;
 353:Core/Src/main.c **** 
 354:Core/Src/main.c ****     	}
ARM GAS  C:\Users\maari\AppData\Local\Temp\ccZYJnBB.s 			page 9


 355:Core/Src/main.c ****     }
 356:Core/Src/main.c ****     //checksum = mandelbrot_sum;
 357:Core/Src/main.c ****     return mandelbrot_sum;
 358:Core/Src/main.c **** }
 359:Core/Src/main.c **** 
 360:Core/Src/main.c **** static inline void cycle_counter_init(void)
 361:Core/Src/main.c **** {
 362:Core/Src/main.c ****     __HAL_RCC_TIM2_CLK_ENABLE();
 363:Core/Src/main.c ****     TIM2->PSC = 0;              // no prescaler
 364:Core/Src/main.c ****     TIM2->ARR = 0xFFFFFFFF;     // auto-reload max
 365:Core/Src/main.c ****     TIM2->CNT = 0;
 366:Core/Src/main.c ****     TIM2->CR1 |= TIM_CR1_CEN;   // enable
 367:Core/Src/main.c **** }
 368:Core/Src/main.c **** 
 369:Core/Src/main.c **** static inline uint64_t cycle_diff(uint32_t start, uint32_t end)
 370:Core/Src/main.c **** {
 371:Core/Src/main.c ****     return (end >= start) ? (uint64_t)(end - start)
 372:Core/Src/main.c ****                           : (uint64_t)(0x100000000ULL - start + end);
 373:Core/Src/main.c **** }
 374:Core/Src/main.c **** 
 375:Core/Src/main.c **** 
 376:Core/Src/main.c **** 
 377:Core/Src/main.c **** static inline uint32_t cycle_counter_get(void)
 378:Core/Src/main.c **** {
 379:Core/Src/main.c ****     return TIM2->CNT;
 380:Core/Src/main.c **** }
 381:Core/Src/main.c **** /* USER CODE END 4 */
 382:Core/Src/main.c **** 
 383:Core/Src/main.c **** /**
 384:Core/Src/main.c ****   * @brief  This function is executed in case of error occurrence.
 385:Core/Src/main.c ****   * @retval None
 386:Core/Src/main.c ****   */
 387:Core/Src/main.c **** void Error_Handler(void)
  93              		.loc 1 387 6 view .LVU28
 388:Core/Src/main.c **** {
 389:Core/Src/main.c ****   /* USER CODE BEGIN Error_Handler_Debug */
 390:Core/Src/main.c ****   /* User can add his own implementation to report the HAL error return state */
 391:Core/Src/main.c ****   __disable_irq();
  94              		.loc 1 391 3 view .LVU29
  95              	.LBB22:
  96              	.LBI22:
  97              		.file 2 "Drivers/CMSIS/Include/cmsis_gcc.h"
   1:Drivers/CMSIS/Include/cmsis_gcc.h **** /**************************************************************************//**
   2:Drivers/CMSIS/Include/cmsis_gcc.h ****  * @file     cmsis_gcc.h
   3:Drivers/CMSIS/Include/cmsis_gcc.h ****  * @brief    CMSIS compiler GCC header file
   4:Drivers/CMSIS/Include/cmsis_gcc.h ****  * @version  V5.0.4
   5:Drivers/CMSIS/Include/cmsis_gcc.h ****  * @date     09. April 2018
   6:Drivers/CMSIS/Include/cmsis_gcc.h ****  ******************************************************************************/
   7:Drivers/CMSIS/Include/cmsis_gcc.h **** /*
   8:Drivers/CMSIS/Include/cmsis_gcc.h ****  * Copyright (c) 2009-2018 Arm Limited. All rights reserved.
   9:Drivers/CMSIS/Include/cmsis_gcc.h ****  *
  10:Drivers/CMSIS/Include/cmsis_gcc.h ****  * SPDX-License-Identifier: Apache-2.0
  11:Drivers/CMSIS/Include/cmsis_gcc.h ****  *
  12:Drivers/CMSIS/Include/cmsis_gcc.h ****  * Licensed under the Apache License, Version 2.0 (the License); you may
  13:Drivers/CMSIS/Include/cmsis_gcc.h ****  * not use this file except in compliance with the License.
  14:Drivers/CMSIS/Include/cmsis_gcc.h ****  * You may obtain a copy of the License at
  15:Drivers/CMSIS/Include/cmsis_gcc.h ****  *
ARM GAS  C:\Users\maari\AppData\Local\Temp\ccZYJnBB.s 			page 10


  16:Drivers/CMSIS/Include/cmsis_gcc.h ****  * www.apache.org/licenses/LICENSE-2.0
  17:Drivers/CMSIS/Include/cmsis_gcc.h ****  *
  18:Drivers/CMSIS/Include/cmsis_gcc.h ****  * Unless required by applicable law or agreed to in writing, software
  19:Drivers/CMSIS/Include/cmsis_gcc.h ****  * distributed under the License is distributed on an AS IS BASIS, WITHOUT
  20:Drivers/CMSIS/Include/cmsis_gcc.h ****  * WARRANTIES OR CONDITIONS OF ANY KIND, either express or implied.
  21:Drivers/CMSIS/Include/cmsis_gcc.h ****  * See the License for the specific language governing permissions and
  22:Drivers/CMSIS/Include/cmsis_gcc.h ****  * limitations under the License.
  23:Drivers/CMSIS/Include/cmsis_gcc.h ****  */
  24:Drivers/CMSIS/Include/cmsis_gcc.h **** 
  25:Drivers/CMSIS/Include/cmsis_gcc.h **** #ifndef __CMSIS_GCC_H
  26:Drivers/CMSIS/Include/cmsis_gcc.h **** #define __CMSIS_GCC_H
  27:Drivers/CMSIS/Include/cmsis_gcc.h **** 
  28:Drivers/CMSIS/Include/cmsis_gcc.h **** /* ignore some GCC warnings */
  29:Drivers/CMSIS/Include/cmsis_gcc.h **** #pragma GCC diagnostic push
  30:Drivers/CMSIS/Include/cmsis_gcc.h **** #pragma GCC diagnostic ignored "-Wsign-conversion"
  31:Drivers/CMSIS/Include/cmsis_gcc.h **** #pragma GCC diagnostic ignored "-Wconversion"
  32:Drivers/CMSIS/Include/cmsis_gcc.h **** #pragma GCC diagnostic ignored "-Wunused-parameter"
  33:Drivers/CMSIS/Include/cmsis_gcc.h **** 
  34:Drivers/CMSIS/Include/cmsis_gcc.h **** /* Fallback for __has_builtin */
  35:Drivers/CMSIS/Include/cmsis_gcc.h **** #ifndef __has_builtin
  36:Drivers/CMSIS/Include/cmsis_gcc.h ****   #define __has_builtin(x) (0)
  37:Drivers/CMSIS/Include/cmsis_gcc.h **** #endif
  38:Drivers/CMSIS/Include/cmsis_gcc.h **** 
  39:Drivers/CMSIS/Include/cmsis_gcc.h **** /* CMSIS compiler specific defines */
  40:Drivers/CMSIS/Include/cmsis_gcc.h **** #ifndef   __ASM
  41:Drivers/CMSIS/Include/cmsis_gcc.h ****   #define __ASM                                  __asm
  42:Drivers/CMSIS/Include/cmsis_gcc.h **** #endif
  43:Drivers/CMSIS/Include/cmsis_gcc.h **** #ifndef   __INLINE
  44:Drivers/CMSIS/Include/cmsis_gcc.h ****   #define __INLINE                               inline
  45:Drivers/CMSIS/Include/cmsis_gcc.h **** #endif
  46:Drivers/CMSIS/Include/cmsis_gcc.h **** #ifndef   __STATIC_INLINE
  47:Drivers/CMSIS/Include/cmsis_gcc.h ****   #define __STATIC_INLINE                        static inline
  48:Drivers/CMSIS/Include/cmsis_gcc.h **** #endif
  49:Drivers/CMSIS/Include/cmsis_gcc.h **** #ifndef   __STATIC_FORCEINLINE                 
  50:Drivers/CMSIS/Include/cmsis_gcc.h ****   #define __STATIC_FORCEINLINE                   __attribute__((always_inline)) static inline
  51:Drivers/CMSIS/Include/cmsis_gcc.h **** #endif                                           
  52:Drivers/CMSIS/Include/cmsis_gcc.h **** #ifndef   __NO_RETURN
  53:Drivers/CMSIS/Include/cmsis_gcc.h ****   #define __NO_RETURN                            __attribute__((__noreturn__))
  54:Drivers/CMSIS/Include/cmsis_gcc.h **** #endif
  55:Drivers/CMSIS/Include/cmsis_gcc.h **** #ifndef   __USED
  56:Drivers/CMSIS/Include/cmsis_gcc.h ****   #define __USED                                 __attribute__((used))
  57:Drivers/CMSIS/Include/cmsis_gcc.h **** #endif
  58:Drivers/CMSIS/Include/cmsis_gcc.h **** #ifndef   __WEAK
  59:Drivers/CMSIS/Include/cmsis_gcc.h ****   #define __WEAK                                 __attribute__((weak))
  60:Drivers/CMSIS/Include/cmsis_gcc.h **** #endif
  61:Drivers/CMSIS/Include/cmsis_gcc.h **** #ifndef   __PACKED
  62:Drivers/CMSIS/Include/cmsis_gcc.h ****   #define __PACKED                               __attribute__((packed, aligned(1)))
  63:Drivers/CMSIS/Include/cmsis_gcc.h **** #endif
  64:Drivers/CMSIS/Include/cmsis_gcc.h **** #ifndef   __PACKED_STRUCT
  65:Drivers/CMSIS/Include/cmsis_gcc.h ****   #define __PACKED_STRUCT                        struct __attribute__((packed, aligned(1)))
  66:Drivers/CMSIS/Include/cmsis_gcc.h **** #endif
  67:Drivers/CMSIS/Include/cmsis_gcc.h **** #ifndef   __PACKED_UNION
  68:Drivers/CMSIS/Include/cmsis_gcc.h ****   #define __PACKED_UNION                         union __attribute__((packed, aligned(1)))
  69:Drivers/CMSIS/Include/cmsis_gcc.h **** #endif
  70:Drivers/CMSIS/Include/cmsis_gcc.h **** #ifndef   __UNALIGNED_UINT32        /* deprecated */
  71:Drivers/CMSIS/Include/cmsis_gcc.h ****   #pragma GCC diagnostic push
  72:Drivers/CMSIS/Include/cmsis_gcc.h ****   #pragma GCC diagnostic ignored "-Wpacked"
ARM GAS  C:\Users\maari\AppData\Local\Temp\ccZYJnBB.s 			page 11


  73:Drivers/CMSIS/Include/cmsis_gcc.h ****   #pragma GCC diagnostic ignored "-Wattributes"
  74:Drivers/CMSIS/Include/cmsis_gcc.h ****   struct __attribute__((packed)) T_UINT32 { uint32_t v; };
  75:Drivers/CMSIS/Include/cmsis_gcc.h ****   #pragma GCC diagnostic pop
  76:Drivers/CMSIS/Include/cmsis_gcc.h ****   #define __UNALIGNED_UINT32(x)                  (((struct T_UINT32 *)(x))->v)
  77:Drivers/CMSIS/Include/cmsis_gcc.h **** #endif
  78:Drivers/CMSIS/Include/cmsis_gcc.h **** #ifndef   __UNALIGNED_UINT16_WRITE
  79:Drivers/CMSIS/Include/cmsis_gcc.h ****   #pragma GCC diagnostic push
  80:Drivers/CMSIS/Include/cmsis_gcc.h ****   #pragma GCC diagnostic ignored "-Wpacked"
  81:Drivers/CMSIS/Include/cmsis_gcc.h ****   #pragma GCC diagnostic ignored "-Wattributes"
  82:Drivers/CMSIS/Include/cmsis_gcc.h ****   __PACKED_STRUCT T_UINT16_WRITE { uint16_t v; };
  83:Drivers/CMSIS/Include/cmsis_gcc.h ****   #pragma GCC diagnostic pop
  84:Drivers/CMSIS/Include/cmsis_gcc.h ****   #define __UNALIGNED_UINT16_WRITE(addr, val)    (void)((((struct T_UINT16_WRITE *)(void *)(addr))-
  85:Drivers/CMSIS/Include/cmsis_gcc.h **** #endif
  86:Drivers/CMSIS/Include/cmsis_gcc.h **** #ifndef   __UNALIGNED_UINT16_READ
  87:Drivers/CMSIS/Include/cmsis_gcc.h ****   #pragma GCC diagnostic push
  88:Drivers/CMSIS/Include/cmsis_gcc.h ****   #pragma GCC diagnostic ignored "-Wpacked"
  89:Drivers/CMSIS/Include/cmsis_gcc.h ****   #pragma GCC diagnostic ignored "-Wattributes"
  90:Drivers/CMSIS/Include/cmsis_gcc.h ****   __PACKED_STRUCT T_UINT16_READ { uint16_t v; };
  91:Drivers/CMSIS/Include/cmsis_gcc.h ****   #pragma GCC diagnostic pop
  92:Drivers/CMSIS/Include/cmsis_gcc.h ****   #define __UNALIGNED_UINT16_READ(addr)          (((const struct T_UINT16_READ *)(const void *)(add
  93:Drivers/CMSIS/Include/cmsis_gcc.h **** #endif
  94:Drivers/CMSIS/Include/cmsis_gcc.h **** #ifndef   __UNALIGNED_UINT32_WRITE
  95:Drivers/CMSIS/Include/cmsis_gcc.h ****   #pragma GCC diagnostic push
  96:Drivers/CMSIS/Include/cmsis_gcc.h ****   #pragma GCC diagnostic ignored "-Wpacked"
  97:Drivers/CMSIS/Include/cmsis_gcc.h ****   #pragma GCC diagnostic ignored "-Wattributes"
  98:Drivers/CMSIS/Include/cmsis_gcc.h ****   __PACKED_STRUCT T_UINT32_WRITE { uint32_t v; };
  99:Drivers/CMSIS/Include/cmsis_gcc.h ****   #pragma GCC diagnostic pop
 100:Drivers/CMSIS/Include/cmsis_gcc.h ****   #define __UNALIGNED_UINT32_WRITE(addr, val)    (void)((((struct T_UINT32_WRITE *)(void *)(addr))-
 101:Drivers/CMSIS/Include/cmsis_gcc.h **** #endif
 102:Drivers/CMSIS/Include/cmsis_gcc.h **** #ifndef   __UNALIGNED_UINT32_READ
 103:Drivers/CMSIS/Include/cmsis_gcc.h ****   #pragma GCC diagnostic push
 104:Drivers/CMSIS/Include/cmsis_gcc.h ****   #pragma GCC diagnostic ignored "-Wpacked"
 105:Drivers/CMSIS/Include/cmsis_gcc.h ****   #pragma GCC diagnostic ignored "-Wattributes"
 106:Drivers/CMSIS/Include/cmsis_gcc.h ****   __PACKED_STRUCT T_UINT32_READ { uint32_t v; };
 107:Drivers/CMSIS/Include/cmsis_gcc.h ****   #pragma GCC diagnostic pop
 108:Drivers/CMSIS/Include/cmsis_gcc.h ****   #define __UNALIGNED_UINT32_READ(addr)          (((const struct T_UINT32_READ *)(const void *)(add
 109:Drivers/CMSIS/Include/cmsis_gcc.h **** #endif
 110:Drivers/CMSIS/Include/cmsis_gcc.h **** #ifndef   __ALIGNED
 111:Drivers/CMSIS/Include/cmsis_gcc.h ****   #define __ALIGNED(x)                           __attribute__((aligned(x)))
 112:Drivers/CMSIS/Include/cmsis_gcc.h **** #endif
 113:Drivers/CMSIS/Include/cmsis_gcc.h **** #ifndef   __RESTRICT
 114:Drivers/CMSIS/Include/cmsis_gcc.h ****   #define __RESTRICT                             __restrict
 115:Drivers/CMSIS/Include/cmsis_gcc.h **** #endif
 116:Drivers/CMSIS/Include/cmsis_gcc.h **** 
 117:Drivers/CMSIS/Include/cmsis_gcc.h **** 
 118:Drivers/CMSIS/Include/cmsis_gcc.h **** /* ###########################  Core Function Access  ########################### */
 119:Drivers/CMSIS/Include/cmsis_gcc.h **** /** \ingroup  CMSIS_Core_FunctionInterface
 120:Drivers/CMSIS/Include/cmsis_gcc.h ****     \defgroup CMSIS_Core_RegAccFunctions CMSIS Core Register Access Functions
 121:Drivers/CMSIS/Include/cmsis_gcc.h ****   @{
 122:Drivers/CMSIS/Include/cmsis_gcc.h ****  */
 123:Drivers/CMSIS/Include/cmsis_gcc.h **** 
 124:Drivers/CMSIS/Include/cmsis_gcc.h **** /**
 125:Drivers/CMSIS/Include/cmsis_gcc.h ****   \brief   Enable IRQ Interrupts
 126:Drivers/CMSIS/Include/cmsis_gcc.h ****   \details Enables IRQ interrupts by clearing the I-bit in the CPSR.
 127:Drivers/CMSIS/Include/cmsis_gcc.h ****            Can only be executed in Privileged modes.
 128:Drivers/CMSIS/Include/cmsis_gcc.h ****  */
 129:Drivers/CMSIS/Include/cmsis_gcc.h **** __STATIC_FORCEINLINE void __enable_irq(void)
ARM GAS  C:\Users\maari\AppData\Local\Temp\ccZYJnBB.s 			page 12


 130:Drivers/CMSIS/Include/cmsis_gcc.h **** {
 131:Drivers/CMSIS/Include/cmsis_gcc.h ****   __ASM volatile ("cpsie i" : : : "memory");
 132:Drivers/CMSIS/Include/cmsis_gcc.h **** }
 133:Drivers/CMSIS/Include/cmsis_gcc.h **** 
 134:Drivers/CMSIS/Include/cmsis_gcc.h **** 
 135:Drivers/CMSIS/Include/cmsis_gcc.h **** /**
 136:Drivers/CMSIS/Include/cmsis_gcc.h ****   \brief   Disable IRQ Interrupts
 137:Drivers/CMSIS/Include/cmsis_gcc.h ****   \details Disables IRQ interrupts by setting the I-bit in the CPSR.
 138:Drivers/CMSIS/Include/cmsis_gcc.h ****            Can only be executed in Privileged modes.
 139:Drivers/CMSIS/Include/cmsis_gcc.h ****  */
 140:Drivers/CMSIS/Include/cmsis_gcc.h **** __STATIC_FORCEINLINE void __disable_irq(void)
  98              		.loc 2 140 27 view .LVU30
  99              	.LBB23:
 141:Drivers/CMSIS/Include/cmsis_gcc.h **** {
 142:Drivers/CMSIS/Include/cmsis_gcc.h ****   __ASM volatile ("cpsid i" : : : "memory");
 100              		.loc 2 142 3 view .LVU31
 101              		.syntax divided
 102              	@ 142 "Drivers/CMSIS/Include/cmsis_gcc.h" 1
 103 0036 72B6     		cpsid i
 104              	@ 0 "" 2
 105              		.thumb
 106              		.syntax unified
 107              	.L3:
 108              	.LBE23:
 109              	.LBE22:
 392:Core/Src/main.c ****   while (1)
 110              		.loc 1 392 3 view .LVU32
 393:Core/Src/main.c ****   {
 394:Core/Src/main.c ****   }
 111              		.loc 1 394 3 view .LVU33
 392:Core/Src/main.c ****   while (1)
 112              		.loc 1 392 9 view .LVU34
 392:Core/Src/main.c ****   while (1)
 113              		.loc 1 392 3 view .LVU35
 114              		.loc 1 394 3 view .LVU36
 392:Core/Src/main.c ****   while (1)
 115              		.loc 1 392 9 view .LVU37
 116 0038 FEE7     		b	.L3
 117              	.L2:
 118              	.LBE21:
 214:Core/Src/main.c ****                               |RCC_CLOCKTYPE_PCLK1;
 119              		.loc 1 214 3 view .LVU38
 216:Core/Src/main.c ****   RCC_ClkInitStruct.AHBCLKDivider = RCC_SYSCLK_DIV1;
 120              		.loc 1 216 3 view .LVU39
 217:Core/Src/main.c ****   RCC_ClkInitStruct.APB1CLKDivider = RCC_HCLK_DIV1;
 121              		.loc 1 217 3 view .LVU40
 218:Core/Src/main.c **** 
 122              		.loc 1 218 3 view .LVU41
 214:Core/Src/main.c ****                               |RCC_CLOCKTYPE_PCLK1;
 123              		.loc 1 214 31 is_stmt 0 view .LVU42
 124 003a 0722     		movs	r2, #7
 125 003c 0223     		movs	r3, #2
 126 003e 0092     		str	r2, [sp]
 127 0040 0193     		str	r3, [sp, #4]
 128 0042 0022     		movs	r2, #0
 129 0044 0023     		movs	r3, #0
 220:Core/Src/main.c ****   {
ARM GAS  C:\Users\maari\AppData\Local\Temp\ccZYJnBB.s 			page 13


 130              		.loc 1 220 7 view .LVU43
 131 0046 0121     		movs	r1, #1
 132 0048 6846     		mov	r0, sp
 214:Core/Src/main.c ****                               |RCC_CLOCKTYPE_PCLK1;
 133              		.loc 1 214 31 view .LVU44
 134 004a 0292     		str	r2, [sp, #8]
 135 004c 0393     		str	r3, [sp, #12]
 220:Core/Src/main.c ****   {
 136              		.loc 1 220 3 is_stmt 1 view .LVU45
 220:Core/Src/main.c ****   {
 137              		.loc 1 220 7 is_stmt 0 view .LVU46
 138 004e FFF7FEFF 		bl	HAL_RCC_ClockConfig
 139              	.LVL3:
 220:Core/Src/main.c ****   {
 140              		.loc 1 220 6 discriminator 1 view .LVU47
 141 0052 0028     		cmp	r0, #0
 142 0054 01D0     		beq	.L1
 222:Core/Src/main.c ****   }
 143              		.loc 1 222 5 is_stmt 1 view .LVU48
 144              	.LBB24:
 145              	.LBI24:
 387:Core/Src/main.c **** {
 146              		.loc 1 387 6 view .LVU49
 391:Core/Src/main.c ****   while (1)
 147              		.loc 1 391 3 view .LVU50
 148              	.LBB25:
 149              	.LBI25:
 140:Drivers/CMSIS/Include/cmsis_gcc.h **** {
 150              		.loc 2 140 27 view .LVU51
 151              	.LBB26:
 152              		.loc 2 142 3 view .LVU52
 153              		.syntax divided
 154              	@ 142 "Drivers/CMSIS/Include/cmsis_gcc.h" 1
 155 0056 72B6     		cpsid i
 156              	@ 0 "" 2
 157              		.thumb
 158              		.syntax unified
 159              	.L5:
 160              	.LBE26:
 161              	.LBE25:
 392:Core/Src/main.c ****   {
 162              		.loc 1 392 3 view .LVU53
 163              		.loc 1 394 3 view .LVU54
 392:Core/Src/main.c ****   {
 164              		.loc 1 392 9 view .LVU55
 392:Core/Src/main.c ****   {
 165              		.loc 1 392 3 view .LVU56
 166              		.loc 1 394 3 view .LVU57
 392:Core/Src/main.c ****   {
 167              		.loc 1 392 9 view .LVU58
 168 0058 FEE7     		b	.L5
 169              	.L1:
 170              	.LBE24:
 224:Core/Src/main.c **** 
 171              		.loc 1 224 1 is_stmt 0 view .LVU59
 172 005a 11B0     		add	sp, sp, #68
 173              		@ sp needed
ARM GAS  C:\Users\maari\AppData\Local\Temp\ccZYJnBB.s 			page 14


 174 005c 00BD     		pop	{pc}
 175              		.cfi_endproc
 176              	.LFE44:
 178              		.global	__aeabi_ldivmod
 179              		.global	__aeabi_lmul
 180 005e C046     		.section	.text.startup.main,"ax",%progbits
 181              		.align	1
 182              		.p2align 2,,3
 183              		.global	main
 184              		.syntax unified
 185              		.code	16
 186              		.thumb_func
 188              	main:
 189              	.LFB43:
  91:Core/Src/main.c **** 
 190              		.loc 1 91 1 is_stmt 1 view -0
 191              		.cfi_startproc
 192              		@ args = 0, pretend = 0, frame = 136
 193              		@ frame_needed = 0, uses_anonymous_args = 0
 100:Core/Src/main.c **** 
 194              		.loc 1 100 3 view .LVU61
  91:Core/Src/main.c **** 
 195              		.loc 1 91 1 is_stmt 0 view .LVU62
 196 0000 F0B5     		push	{r4, r5, r6, r7, lr}
 197              	.LCFI2:
 198              		.cfi_def_cfa_offset 20
 199              		.cfi_offset 4, -20
 200              		.cfi_offset 5, -16
 201              		.cfi_offset 6, -12
 202              		.cfi_offset 7, -8
 203              		.cfi_offset 14, -4
 204 0002 DE46     		mov	lr, fp
 205 0004 5746     		mov	r7, r10
 206 0006 4E46     		mov	r6, r9
 207 0008 4546     		mov	r5, r8
 208 000a E0B5     		push	{r5, r6, r7, lr}
 209              	.LCFI3:
 210              		.cfi_def_cfa_offset 36
 211              		.cfi_offset 8, -36
 212              		.cfi_offset 9, -32
 213              		.cfi_offset 10, -28
 214              		.cfi_offset 11, -24
 215 000c A3B0     		sub	sp, sp, #140
 216              	.LCFI4:
 217              		.cfi_def_cfa_offset 176
 100:Core/Src/main.c **** 
 218              		.loc 1 100 3 view .LVU63
 219 000e FFF7FEFF 		bl	HAL_Init
 220              	.LVL4:
 107:Core/Src/main.c **** 
 221              		.loc 1 107 3 is_stmt 1 view .LVU64
 222 0012 FFF7FEFF 		bl	SystemClock_Config
 223              	.LVL5:
 114:Core/Src/main.c ****   /* USER CODE BEGIN 2 */
 224              		.loc 1 114 3 view .LVU65
 225              	.LBB53:
 226              	.LBI53:
ARM GAS  C:\Users\maari\AppData\Local\Temp\ccZYJnBB.s 			page 15


 231:Core/Src/main.c **** {
 227              		.loc 1 231 13 view .LVU66
 228              	.LBB54:
 233:Core/Src/main.c ****   /* USER CODE BEGIN MX_GPIO_Init_1 */
 229              		.loc 1 233 3 view .LVU67
 233:Core/Src/main.c ****   /* USER CODE BEGIN MX_GPIO_Init_1 */
 230              		.loc 1 233 20 is_stmt 0 view .LVU68
 231 0016 1422     		movs	r2, #20
 232 0018 0021     		movs	r1, #0
 233 001a 1CA8     		add	r0, sp, #112
 234 001c FFF7FEFF 		bl	memset
 235              	.LVL6:
 239:Core/Src/main.c ****   __HAL_RCC_GPIOB_CLK_ENABLE();
 236              		.loc 1 239 3 is_stmt 1 view .LVU69
 237              	.LBB55:
 239:Core/Src/main.c ****   __HAL_RCC_GPIOB_CLK_ENABLE();
 238              		.loc 1 239 3 view .LVU70
 239:Core/Src/main.c ****   __HAL_RCC_GPIOB_CLK_ENABLE();
 239              		.loc 1 239 3 view .LVU71
 240 0020 8021     		movs	r1, #128
 241 0022 A14B     		ldr	r3, .L24
 242 0024 C903     		lsls	r1, r1, #15
 243 0026 5A69     		ldr	r2, [r3, #20]
 244              	.LBE55:
 244:Core/Src/main.c ****                           |GPIO_PIN_4|GPIO_PIN_5|GPIO_PIN_6|GPIO_PIN_7, GPIO_PIN_RESET);
 245              		.loc 1 244 3 is_stmt 0 view .LVU72
 246 0028 A048     		ldr	r0, .L24+4
 247              	.LBB56:
 239:Core/Src/main.c ****   __HAL_RCC_GPIOB_CLK_ENABLE();
 248              		.loc 1 239 3 view .LVU73
 249 002a 0A43     		orrs	r2, r1
 250 002c 5A61     		str	r2, [r3, #20]
 239:Core/Src/main.c ****   __HAL_RCC_GPIOB_CLK_ENABLE();
 251              		.loc 1 239 3 is_stmt 1 view .LVU74
 252 002e 5A69     		ldr	r2, [r3, #20]
 253              	.LBE56:
 254              	.LBE54:
 255              	.LBE53:
 256              	.LBB69:
 257              	.LBB70:
 258              	.LBB71:
 259              	.LBB72:
 260              	.LBB73:
 261              	.LBB74:
 262              	.LBB75:
 263              	.LBB76:
 264              	.LBB77:
 290:Core/Src/main.c ****                 int32_t yi2 = (int32_t)(((int64_t)yi * yi + (1 << (Q - 1))) >> Q);
 265              		.loc 1 290 59 is_stmt 0 view .LVU75
 266 0030 8026     		movs	r6, #128
 267              	.LBE77:
 268              	.LBE76:
 269              	.LBE75:
 270              	.LBE74:
 271              	.LBE73:
 272              	.LBE72:
 273              	.LBE71:
ARM GAS  C:\Users\maari\AppData\Local\Temp\ccZYJnBB.s 			page 16


 274              	.LBE70:
 275              	.LBE69:
 276              	.LBB141:
 277              	.LBB67:
 278              	.LBB57:
 239:Core/Src/main.c ****   __HAL_RCC_GPIOB_CLK_ENABLE();
 279              		.loc 1 239 3 view .LVU76
 280 0032 0A40     		ands	r2, r1
 281              	.LBE57:
 282              	.LBB58:
 240:Core/Src/main.c ****   __HAL_RCC_GPIOA_CLK_ENABLE();
 283              		.loc 1 240 3 view .LVU77
 284 0034 8021     		movs	r1, #128
 285              	.LBE58:
 286              	.LBB59:
 239:Core/Src/main.c ****   __HAL_RCC_GPIOB_CLK_ENABLE();
 287              		.loc 1 239 3 view .LVU78
 288 0036 1992     		str	r2, [sp, #100]
 239:Core/Src/main.c ****   __HAL_RCC_GPIOB_CLK_ENABLE();
 289              		.loc 1 239 3 is_stmt 1 view .LVU79
 290 0038 199A     		ldr	r2, [sp, #100]
 291              	.LBE59:
 239:Core/Src/main.c ****   __HAL_RCC_GPIOB_CLK_ENABLE();
 292              		.loc 1 239 3 view .LVU80
 240:Core/Src/main.c ****   __HAL_RCC_GPIOA_CLK_ENABLE();
 293              		.loc 1 240 3 view .LVU81
 294              	.LBB60:
 240:Core/Src/main.c ****   __HAL_RCC_GPIOA_CLK_ENABLE();
 295              		.loc 1 240 3 view .LVU82
 240:Core/Src/main.c ****   __HAL_RCC_GPIOA_CLK_ENABLE();
 296              		.loc 1 240 3 view .LVU83
 297 003a 5A69     		ldr	r2, [r3, #20]
 298 003c C902     		lsls	r1, r1, #11
 299 003e 0A43     		orrs	r2, r1
 300 0040 5A61     		str	r2, [r3, #20]
 240:Core/Src/main.c ****   __HAL_RCC_GPIOA_CLK_ENABLE();
 301              		.loc 1 240 3 view .LVU84
 302 0042 5A69     		ldr	r2, [r3, #20]
 303              	.LBE60:
 304              	.LBE67:
 305              	.LBE141:
 306              	.LBB142:
 307              	.LBB138:
 308              	.LBB122:
 309              	.LBB116:
 310              	.LBB107:
 311              	.LBB101:
 312              	.LBB94:
 313              	.LBB87:
 314              	.LBB78:
 290:Core/Src/main.c ****                 int32_t yi2 = (int32_t)(((int64_t)yi * yi + (1 << (Q - 1))) >> Q);
 315              		.loc 1 290 59 is_stmt 0 view .LVU85
 316 0044 0027     		movs	r7, #0
 317              	.LBE78:
 318              	.LBE87:
 319              	.LBE94:
 320              	.LBE101:
ARM GAS  C:\Users\maari\AppData\Local\Temp\ccZYJnBB.s 			page 17


 321              	.LBE107:
 322              	.LBE116:
 323              	.LBE122:
 324              	.LBE138:
 325              	.LBE142:
 326              	.LBB143:
 327              	.LBB68:
 328              	.LBB61:
 240:Core/Src/main.c ****   __HAL_RCC_GPIOA_CLK_ENABLE();
 329              		.loc 1 240 3 view .LVU86
 330 0046 0A40     		ands	r2, r1
 331              	.LBE61:
 332              	.LBB62:
 241:Core/Src/main.c **** 
 333              		.loc 1 241 3 view .LVU87
 334 0048 8021     		movs	r1, #128
 335              	.LBE62:
 336              	.LBB63:
 240:Core/Src/main.c ****   __HAL_RCC_GPIOA_CLK_ENABLE();
 337              		.loc 1 240 3 view .LVU88
 338 004a 1A92     		str	r2, [sp, #104]
 240:Core/Src/main.c ****   __HAL_RCC_GPIOA_CLK_ENABLE();
 339              		.loc 1 240 3 is_stmt 1 view .LVU89
 340 004c 1A9A     		ldr	r2, [sp, #104]
 341              	.LBE63:
 240:Core/Src/main.c ****   __HAL_RCC_GPIOA_CLK_ENABLE();
 342              		.loc 1 240 3 view .LVU90
 241:Core/Src/main.c **** 
 343              		.loc 1 241 3 view .LVU91
 344              	.LBB64:
 241:Core/Src/main.c **** 
 345              		.loc 1 241 3 view .LVU92
 241:Core/Src/main.c **** 
 346              		.loc 1 241 3 view .LVU93
 347 004e 5A69     		ldr	r2, [r3, #20]
 348 0050 8902     		lsls	r1, r1, #10
 349 0052 0A43     		orrs	r2, r1
 350 0054 5A61     		str	r2, [r3, #20]
 241:Core/Src/main.c **** 
 351              		.loc 1 241 3 view .LVU94
 352 0056 5B69     		ldr	r3, [r3, #20]
 353              	.LBE64:
 244:Core/Src/main.c ****                           |GPIO_PIN_4|GPIO_PIN_5|GPIO_PIN_6|GPIO_PIN_7, GPIO_PIN_RESET);
 354              		.loc 1 244 3 is_stmt 0 view .LVU95
 355 0058 0022     		movs	r2, #0
 356              	.LBB65:
 241:Core/Src/main.c **** 
 357              		.loc 1 241 3 view .LVU96
 358 005a 0B40     		ands	r3, r1
 359 005c 1B93     		str	r3, [sp, #108]
 241:Core/Src/main.c **** 
 360              		.loc 1 241 3 is_stmt 1 view .LVU97
 361              	.LBE65:
 244:Core/Src/main.c ****                           |GPIO_PIN_4|GPIO_PIN_5|GPIO_PIN_6|GPIO_PIN_7, GPIO_PIN_RESET);
 362              		.loc 1 244 3 is_stmt 0 view .LVU98
 363 005e FF21     		movs	r1, #255
 364              	.LBB66:
ARM GAS  C:\Users\maari\AppData\Local\Temp\ccZYJnBB.s 			page 18


 241:Core/Src/main.c **** 
 365              		.loc 1 241 3 view .LVU99
 366 0060 1B9B     		ldr	r3, [sp, #108]
 367              	.LBE66:
 241:Core/Src/main.c **** 
 368              		.loc 1 241 3 is_stmt 1 view .LVU100
 244:Core/Src/main.c ****                           |GPIO_PIN_4|GPIO_PIN_5|GPIO_PIN_6|GPIO_PIN_7, GPIO_PIN_RESET);
 369              		.loc 1 244 3 view .LVU101
 370 0062 FFF7FEFF 		bl	HAL_GPIO_WritePin
 371              	.LVL7:
 249:Core/Src/main.c ****                           |GPIO_PIN_4|GPIO_PIN_5|GPIO_PIN_6|GPIO_PIN_7;
 372              		.loc 1 249 3 view .LVU102
 251:Core/Src/main.c ****   GPIO_InitStruct.Pull = GPIO_NOPULL;
 373              		.loc 1 251 3 view .LVU103
 252:Core/Src/main.c ****   GPIO_InitStruct.Speed = GPIO_SPEED_FREQ_LOW;
 374              		.loc 1 252 3 view .LVU104
 253:Core/Src/main.c ****   HAL_GPIO_Init(GPIOB, &GPIO_InitStruct);
 375              		.loc 1 253 3 view .LVU105
 249:Core/Src/main.c ****                           |GPIO_PIN_4|GPIO_PIN_5|GPIO_PIN_6|GPIO_PIN_7;
 376              		.loc 1 249 23 is_stmt 0 view .LVU106
 377 0066 FF22     		movs	r2, #255
 378 0068 0123     		movs	r3, #1
 379 006a 1C92     		str	r2, [sp, #112]
 380 006c 1D93     		str	r3, [sp, #116]
 381 006e 0023     		movs	r3, #0
 382 0070 0022     		movs	r2, #0
 254:Core/Src/main.c **** 
 383              		.loc 1 254 3 view .LVU107
 384 0072 8E48     		ldr	r0, .L24+4
 385 0074 1CA9     		add	r1, sp, #112
 249:Core/Src/main.c ****                           |GPIO_PIN_4|GPIO_PIN_5|GPIO_PIN_6|GPIO_PIN_7;
 386              		.loc 1 249 23 view .LVU108
 387 0076 1E92     		str	r2, [sp, #120]
 388 0078 1F93     		str	r3, [sp, #124]
 254:Core/Src/main.c **** 
 389              		.loc 1 254 3 is_stmt 1 view .LVU109
 390 007a FFF7FEFF 		bl	HAL_GPIO_Init
 391              	.LVL8:
 392              	.LBE68:
 393              	.LBE143:
 117:Core/Src/main.c **** 
 394              		.loc 1 117 3 view .LVU110
 119:Core/Src/main.c ****   {
 395              		.loc 1 119 3 view .LVU111
 396              	.LBB144:
 119:Core/Src/main.c ****   {
 397              		.loc 1 119 7 view .LVU112
 119:Core/Src/main.c ****   {
 398              		.loc 1 119 19 discriminator 1 view .LVU113
 399 007e 8C4B     		ldr	r3, .L24+8
 400              	.LBB139:
 401              	.LBB123:
 402              	.LBB117:
 403              	.LBB108:
 404              	.LBB102:
 405              	.LBB95:
 406              	.LBB88:
ARM GAS  C:\Users\maari\AppData\Local\Temp\ccZYJnBB.s 			page 19


 407              	.LBB79:
 290:Core/Src/main.c ****                 int32_t yi2 = (int32_t)(((int64_t)yi * yi + (1 << (Q - 1))) >> Q);
 408              		.loc 1 290 59 is_stmt 0 view .LVU114
 409 0080 3602     		lsls	r6, r6, #8
 410 0082 9B46     		mov	fp, r3
 411 0084 8B4B     		ldr	r3, .L24+12
 412 0086 9846     		mov	r8, r3
 413 0088 C246     		mov	r10, r8
 414 008a D846     		mov	r8, fp
 415 008c 8A4B     		ldr	r3, .L24+16
 416 008e 1593     		str	r3, [sp, #84]
 417 0090 8A4B     		ldr	r3, .L24+20
 418 0092 1393     		str	r3, [sp, #76]
 419 0094 8A4B     		ldr	r3, .L24+24
 420 0096 1493     		str	r3, [sp, #80]
 421              	.LVL9:
 422              	.L16:
 290:Core/Src/main.c ****                 int32_t yi2 = (int32_t)(((int64_t)yi * yi + (1 << (Q - 1))) >> Q);
 423              		.loc 1 290 59 view .LVU115
 424              	.LBE79:
 425              	.LBE88:
 426              	.LBE95:
 427              	.LBE102:
 428              	.LBE108:
 429              	.LBE117:
 430              	.LBE123:
 123:Core/Src/main.c ****   start_time = HAL_GetTick();
 431              		.loc 1 123 3 is_stmt 1 view .LVU116
 432              	.LBB124:
 433              	.LBI124:
 360:Core/Src/main.c **** {
 434              		.loc 1 360 20 view .LVU117
 435              	.LBB125:
 362:Core/Src/main.c ****     TIM2->PSC = 0;              // no prescaler
 436              		.loc 1 362 5 view .LVU118
 437              	.LBB126:
 362:Core/Src/main.c ****     TIM2->PSC = 0;              // no prescaler
 438              		.loc 1 362 5 view .LVU119
 362:Core/Src/main.c ****     TIM2->PSC = 0;              // no prescaler
 439              		.loc 1 362 5 view .LVU120
 440 0098 0122     		movs	r2, #1
 441 009a 834B     		ldr	r3, .L24
 442              	.LBE126:
 363:Core/Src/main.c ****     TIM2->ARR = 0xFFFFFFFF;     // auto-reload max
 443              		.loc 1 363 15 is_stmt 0 view .LVU121
 444 009c 8024     		movs	r4, #128
 445              	.LBB127:
 362:Core/Src/main.c ****     TIM2->PSC = 0;              // no prescaler
 446              		.loc 1 362 5 view .LVU122
 447 009e D969     		ldr	r1, [r3, #28]
 448              	.LBE127:
 363:Core/Src/main.c ****     TIM2->ARR = 0xFFFFFFFF;     // auto-reload max
 449              		.loc 1 363 15 view .LVU123
 450 00a0 0025     		movs	r5, #0
 451              	.LBB128:
 362:Core/Src/main.c ****     TIM2->PSC = 0;              // no prescaler
 452              		.loc 1 362 5 view .LVU124
ARM GAS  C:\Users\maari\AppData\Local\Temp\ccZYJnBB.s 			page 20


 453 00a2 1143     		orrs	r1, r2
 454 00a4 D961     		str	r1, [r3, #28]
 362:Core/Src/main.c ****     TIM2->PSC = 0;              // no prescaler
 455              		.loc 1 362 5 is_stmt 1 view .LVU125
 456 00a6 DB69     		ldr	r3, [r3, #28]
 457              	.LBE128:
 363:Core/Src/main.c ****     TIM2->ARR = 0xFFFFFFFF;     // auto-reload max
 458              		.loc 1 363 15 is_stmt 0 view .LVU126
 459 00a8 E405     		lsls	r4, r4, #23
 460              	.LBB129:
 362:Core/Src/main.c ****     TIM2->PSC = 0;              // no prescaler
 461              		.loc 1 362 5 view .LVU127
 462 00aa 1340     		ands	r3, r2
 463 00ac 1C93     		str	r3, [sp, #112]
 362:Core/Src/main.c ****     TIM2->PSC = 0;              // no prescaler
 464              		.loc 1 362 5 is_stmt 1 view .LVU128
 465 00ae 1C9B     		ldr	r3, [sp, #112]
 466              	.LBE129:
 362:Core/Src/main.c ****     TIM2->PSC = 0;              // no prescaler
 467              		.loc 1 362 5 view .LVU129
 363:Core/Src/main.c ****     TIM2->ARR = 0xFFFFFFFF;     // auto-reload max
 468              		.loc 1 363 5 view .LVU130
 364:Core/Src/main.c ****     TIM2->CNT = 0;
 469              		.loc 1 364 15 is_stmt 0 view .LVU131
 470 00b0 0123     		movs	r3, #1
 471 00b2 5B42     		rsbs	r3, r3, #0
 363:Core/Src/main.c ****     TIM2->ARR = 0xFFFFFFFF;     // auto-reload max
 472              		.loc 1 363 15 view .LVU132
 473 00b4 A562     		str	r5, [r4, #40]
 364:Core/Src/main.c ****     TIM2->CNT = 0;
 474              		.loc 1 364 5 is_stmt 1 view .LVU133
 364:Core/Src/main.c ****     TIM2->CNT = 0;
 475              		.loc 1 364 15 is_stmt 0 view .LVU134
 476 00b6 E362     		str	r3, [r4, #44]
 365:Core/Src/main.c ****     TIM2->CR1 |= TIM_CR1_CEN;   // enable
 477              		.loc 1 365 5 is_stmt 1 view .LVU135
 365:Core/Src/main.c ****     TIM2->CR1 |= TIM_CR1_CEN;   // enable
 478              		.loc 1 365 15 is_stmt 0 view .LVU136
 479 00b8 6562     		str	r5, [r4, #36]
 366:Core/Src/main.c **** }
 480              		.loc 1 366 5 is_stmt 1 view .LVU137
 366:Core/Src/main.c **** }
 481              		.loc 1 366 9 is_stmt 0 view .LVU138
 482 00ba 2368     		ldr	r3, [r4]
 366:Core/Src/main.c **** }
 483              		.loc 1 366 15 view .LVU139
 484 00bc 1343     		orrs	r3, r2
 485 00be 2360     		str	r3, [r4]
 486              	.LBE125:
 487              	.LBE124:
 124:Core/Src/main.c **** 
 488              		.loc 1 124 3 is_stmt 1 view .LVU140
 124:Core/Src/main.c **** 
 489              		.loc 1 124 16 is_stmt 0 view .LVU141
 490 00c0 FFF7FEFF 		bl	HAL_GetTick
 491              	.LVL10:
 124:Core/Src/main.c **** 
ARM GAS  C:\Users\maari\AppData\Local\Temp\ccZYJnBB.s 			page 21


 492              		.loc 1 124 16 discriminator 1 view .LVU142
 493 00c4 5346     		mov	r3, r10
 494 00c6 21C3     		stmia	r3!, {r0, r5}
 127:Core/Src/main.c **** 
 495              		.loc 1 127 3 is_stmt 1 view .LVU143
 496              	.LBB130:
 497              	.LBI130:
 377:Core/Src/main.c **** {
 498              		.loc 1 377 24 view .LVU144
 499              	.LBB131:
 379:Core/Src/main.c **** }
 500              		.loc 1 379 5 view .LVU145
 379:Core/Src/main.c **** }
 501              		.loc 1 379 16 is_stmt 0 view .LVU146
 502 00c8 636A     		ldr	r3, [r4, #36]
 503              	.LBE131:
 504              	.LBE130:
 131:Core/Src/main.c ****   //checksum = calculate_mandelbrot_double(initial_width, initial_height, MAX_ITER);
 505              		.loc 1 131 3 is_stmt 1 view .LVU147
 131:Core/Src/main.c ****   //checksum = calculate_mandelbrot_double(initial_width, initial_height, MAX_ITER);
 506              		.loc 1 131 14 is_stmt 0 view .LVU148
 507 00ca 4346     		mov	r3, r8
 508              	.LBB132:
 509              	.LBB118:
 276:Core/Src/main.c ****     const int32_t y_step = (int32_t)(((int64_t)2 * ONE) / height);				// Bit shift the top before d
 510              		.loc 1 276 57 view .LVU149
 511 00cc E020     		movs	r0, #224
 512              	.LBE118:
 513              	.LBE132:
 131:Core/Src/main.c ****   //checksum = calculate_mandelbrot_double(initial_width, initial_height, MAX_ITER);
 514              		.loc 1 131 14 view .LVU150
 515 00ce 1C68     		ldr	r4, [r3]
 516              	.LBB133:
 517              	.LBB119:
 276:Core/Src/main.c ****     const int32_t y_step = (int32_t)(((int64_t)2 * ONE) / height);				// Bit shift the top before d
 518              		.loc 1 276 57 view .LVU151
 519 00d0 0021     		movs	r1, #0
 276:Core/Src/main.c ****     const int32_t y_step = (int32_t)(((int64_t)2 * ONE) / height);				// Bit shift the top before d
 520              		.loc 1 276 62 view .LVU152
 521 00d2 6200     		lsls	r2, r4, #1
 522 00d4 D317     		asrs	r3, r2, #31
 276:Core/Src/main.c ****     const int32_t y_step = (int32_t)(((int64_t)2 * ONE) / height);				// Bit shift the top before d
 523              		.loc 1 276 57 view .LVU153
 524 00d6 C002     		lsls	r0, r0, #11
 525              	.LBE119:
 526              	.LBE133:
 131:Core/Src/main.c ****   //checksum = calculate_mandelbrot_double(initial_width, initial_height, MAX_ITER);
 527              		.loc 1 131 14 view .LVU154
 528 00d8 0D94     		str	r4, [sp, #52]
 529              	.LVL11:
 530              	.LBB134:
 531              	.LBI71:
 263:Core/Src/main.c **** {
 532              		.loc 1 263 10 is_stmt 1 view .LVU155
 533              	.LBB120:
 265:Core/Src/main.c **** 
 534              		.loc 1 265 5 view .LVU156
ARM GAS  C:\Users\maari\AppData\Local\Temp\ccZYJnBB.s 			page 22


 271:Core/Src/main.c ****     const int32_t y_top  = -ONE;               // -1.0 as y starting point
 535              		.loc 1 271 5 view .LVU157
 272:Core/Src/main.c **** 
 536              		.loc 1 272 5 view .LVU158
 276:Core/Src/main.c ****     const int32_t y_step = (int32_t)(((int64_t)2 * ONE) / height);				// Bit shift the top before d
 537              		.loc 1 276 5 view .LVU159
 276:Core/Src/main.c ****     const int32_t y_step = (int32_t)(((int64_t)2 * ONE) / height);				// Bit shift the top before d
 538              		.loc 1 276 57 is_stmt 0 view .LVU160
 539 00da FFF7FEFF 		bl	__aeabi_ldivmod
 540              	.LVL12:
 541 00de 0E90     		str	r0, [sp, #56]
 542              	.LVL13:
 277:Core/Src/main.c **** 
 543              		.loc 1 277 5 is_stmt 1 view .LVU161
 277:Core/Src/main.c **** 
 544              		.loc 1 277 57 is_stmt 0 view .LVU162
 545 00e0 8020     		movs	r0, #128
 546              	.LVL14:
 277:Core/Src/main.c **** 
 547              		.loc 1 277 57 view .LVU163
 548 00e2 E317     		asrs	r3, r4, #31
 549 00e4 2200     		movs	r2, r4
 550 00e6 0021     		movs	r1, #0
 551 00e8 8002     		lsls	r0, r0, #10
 552 00ea FFF7FEFF 		bl	__aeabi_ldivmod
 553              	.LVL15:
 279:Core/Src/main.c **** 
 554              		.loc 1 279 5 is_stmt 1 view .LVU164
 281:Core/Src/main.c ****     for (int y = 0; y < height; ++y) {
 555              		.loc 1 281 5 view .LVU165
 282:Core/Src/main.c ****         int32_t x0 = x_left;			// starting constant
 556              		.loc 1 282 5 view .LVU166
 557              	.LBB109:
 282:Core/Src/main.c ****         int32_t x0 = x_left;			// starting constant
 558              		.loc 1 282 10 view .LVU167
 282:Core/Src/main.c ****         int32_t x0 = x_left;			// starting constant
 559              		.loc 1 282 23 discriminator 1 view .LVU168
 560              	.LBE109:
 265:Core/Src/main.c **** 
 561              		.loc 1 265 14 is_stmt 0 view .LVU169
 562 00ee 0023     		movs	r3, #0
 563              	.LBB110:
 282:Core/Src/main.c ****         int32_t x0 = x_left;			// starting constant
 564              		.loc 1 282 23 discriminator 1 view .LVU170
 565 00f0 002C     		cmp	r4, #0
 566 00f2 00DC     		bgt	.LCB449
 567 00f4 D4E0     		b	.L22	@long jump
 568              	.LCB449:
 569              	.LBE110:
 265:Core/Src/main.c **** 
 570              		.loc 1 265 14 view .LVU171
 571 00f6 0024     		movs	r4, #0
 572              	.LVL16:
 573              	.LBB111:
 282:Core/Src/main.c ****         int32_t x0 = x_left;			// starting constant
 574              		.loc 1 282 14 view .LVU172
 575 00f8 9946     		mov	r9, r3
ARM GAS  C:\Users\maari\AppData\Local\Temp\ccZYJnBB.s 			page 23


 576              	.LBE111:
 265:Core/Src/main.c **** 
 577              		.loc 1 265 14 view .LVU173
 578 00fa 0A93     		str	r3, [sp, #40]
 579 00fc 0B94     		str	r4, [sp, #44]
 580              	.LBB112:
 581              	.LBB103:
 582              	.LBB96:
 583              	.LBB89:
 584              	.LBB80:
 294:Core/Src/main.c **** 
 585              		.loc 1 294 20 view .LVU174
 586 00fe 029C     		ldr	r4, [sp, #8]
 587 0100 039D     		ldr	r5, [sp, #12]
 588              	.LBE80:
 589              	.LBE89:
 590              	.LBE96:
 591              	.LBE103:
 592              	.LBE112:
 281:Core/Src/main.c ****     for (int y = 0; y < height; ++y) {
 593              		.loc 1 281 13 view .LVU175
 594 0102 704B     		ldr	r3, .L24+28
 595              	.LBB113:
 596              	.LBB104:
 597              	.LBB97:
 598              	.LBB90:
 599              	.LBB81:
 294:Core/Src/main.c **** 
 600              		.loc 1 294 20 view .LVU176
 601 0104 1290     		str	r0, [sp, #72]
 602              	.LBE81:
 603              	.LBE90:
 604              	.LBE97:
 605              	.LBE104:
 606              	.LBE113:
 281:Core/Src/main.c ****     for (int y = 0; y < height; ++y) {
 607              		.loc 1 281 13 view .LVU177
 608 0106 0793     		str	r3, [sp, #28]
 609              	.LBB114:
 610              	.LBB105:
 611              	.LBB98:
 612              	.LBB91:
 613              	.LBB82:
 294:Core/Src/main.c **** 
 614              		.loc 1 294 20 view .LVU178
 615 0108 4346     		mov	r3, r8
 616 010a 1693     		str	r3, [sp, #88]
 617 010c 4B46     		mov	r3, r9
 618 010e 0F93     		str	r3, [sp, #60]
 619 0110 5346     		mov	r3, r10
 620 0112 1793     		str	r3, [sp, #92]
 621              	.LVL17:
 622              	.L8:
 294:Core/Src/main.c **** 
 623              		.loc 1 294 20 view .LVU179
 624              	.LBE82:
 625              	.LBE91:
ARM GAS  C:\Users\maari\AppData\Local\Temp\ccZYJnBB.s 			page 24


 285:Core/Src/main.c ****             int32_t xi = 0, yi = 0;
 626              		.loc 1 285 27 is_stmt 1 discriminator 1 view .LVU180
 285:Core/Src/main.c ****             int32_t xi = 0, yi = 0;
 627              		.loc 1 285 18 is_stmt 0 view .LVU181
 628 0114 0023     		movs	r3, #0
 629 0116 0C93     		str	r3, [sp, #48]
 630              	.LBE98:
 283:Core/Src/main.c **** 
 631              		.loc 1 283 17 view .LVU182
 632 0118 6B4B     		ldr	r3, .L24+32
 633 011a 0693     		str	r3, [sp, #24]
 634              	.LVL18:
 635              	.L15:
 636              	.LBB99:
 637              	.LBB92:
 289:Core/Src/main.c ****                 int32_t xi2 = (int32_t)(((int64_t)xi * xi + (1 << (Q - 1))) >> Q);
 638              		.loc 1 289 30 is_stmt 1 view .LVU183
 639              	.LBB83:
 290:Core/Src/main.c ****                 int32_t yi2 = (int32_t)(((int64_t)yi * yi + (1 << (Q - 1))) >> Q);
 640              		.loc 1 290 17 view .LVU184
 291:Core/Src/main.c **** 
 641              		.loc 1 291 17 view .LVU185
 294:Core/Src/main.c **** 
 642              		.loc 1 294 17 view .LVU186
 643              	.LBE83:
 287:Core/Src/main.c **** 
 644              		.loc 1 287 17 is_stmt 0 view .LVU187
 645 011c 0023     		movs	r3, #0
 646              	.LBB84:
 291:Core/Src/main.c **** 
 647              		.loc 1 291 25 view .LVU188
 648 011e 0020     		movs	r0, #0
 291:Core/Src/main.c **** 
 649              		.loc 1 291 42 view .LVU189
 650 0120 9846     		mov	r8, r3
 290:Core/Src/main.c ****                 int32_t yi2 = (int32_t)(((int64_t)yi * yi + (1 << (Q - 1))) >> Q);
 651              		.loc 1 290 25 view .LVU190
 652 0122 9946     		mov	r9, r3
 290:Core/Src/main.c ****                 int32_t yi2 = (int32_t)(((int64_t)yi * yi + (1 << (Q - 1))) >> Q);
 653              		.loc 1 290 42 view .LVU191
 654 0124 9A46     		mov	r10, r3
 655 0126 9B46     		mov	fp, r3
 656              	.LBE84:
 287:Core/Src/main.c **** 
 657              		.loc 1 287 17 view .LVU192
 658 0128 0293     		str	r3, [sp, #8]
 659              	.LBB85:
 291:Core/Src/main.c **** 
 660              		.loc 1 291 42 view .LVU193
 661 012a 0593     		str	r3, [sp, #20]
 662 012c 2BE0     		b	.L21
 663              	.LVL19:
 664              	.L13:
 290:Core/Src/main.c ****                 int32_t yi2 = (int32_t)(((int64_t)yi * yi + (1 << (Q - 1))) >> Q);
 665              		.loc 1 290 17 is_stmt 1 view .LVU194
 290:Core/Src/main.c ****                 int32_t yi2 = (int32_t)(((int64_t)yi * yi + (1 << (Q - 1))) >> Q);
 666              		.loc 1 290 42 is_stmt 0 view .LVU195
ARM GAS  C:\Users\maari\AppData\Local\Temp\ccZYJnBB.s 			page 25


 667 012e 4B46     		mov	r3, r9
 668 0130 DB17     		asrs	r3, r3, #31
 290:Core/Src/main.c ****                 int32_t yi2 = (int32_t)(((int64_t)yi * yi + (1 << (Q - 1))) >> Q);
 669              		.loc 1 290 54 view .LVU196
 670 0132 4A46     		mov	r2, r9
 671 0134 4846     		mov	r0, r9
 672 0136 1900     		movs	r1, r3
 290:Core/Src/main.c ****                 int32_t yi2 = (int32_t)(((int64_t)yi * yi + (1 << (Q - 1))) >> Q);
 673              		.loc 1 290 42 view .LVU197
 674 0138 9B46     		mov	fp, r3
 290:Core/Src/main.c ****                 int32_t yi2 = (int32_t)(((int64_t)yi * yi + (1 << (Q - 1))) >> Q);
 675              		.loc 1 290 54 view .LVU198
 676 013a FFF7FEFF 		bl	__aeabi_lmul
 677              	.LVL20:
 290:Core/Src/main.c ****                 int32_t yi2 = (int32_t)(((int64_t)yi * yi + (1 << (Q - 1))) >> Q);
 678              		.loc 1 290 59 view .LVU199
 679 013e 8019     		adds	r0, r0, r6
 680 0140 7941     		adcs	r1, r1, r7
 290:Core/Src/main.c ****                 int32_t yi2 = (int32_t)(((int64_t)yi * yi + (1 << (Q - 1))) >> Q);
 681              		.loc 1 290 77 view .LVU200
 682 0142 0B04     		lsls	r3, r1, #16
 683 0144 000C     		lsrs	r0, r0, #16
 684 0146 0343     		orrs	r3, r0
 290:Core/Src/main.c ****                 int32_t yi2 = (int32_t)(((int64_t)yi * yi + (1 << (Q - 1))) >> Q);
 685              		.loc 1 290 42 view .LVU201
 686 0148 CA46     		mov	r10, r9
 290:Core/Src/main.c ****                 int32_t yi2 = (int32_t)(((int64_t)yi * yi + (1 << (Q - 1))) >> Q);
 687              		.loc 1 290 77 view .LVU202
 688 014a 9946     		mov	r9, r3
 689              	.LVL21:
 291:Core/Src/main.c **** 
 690              		.loc 1 291 17 is_stmt 1 view .LVU203
 291:Core/Src/main.c **** 
 691              		.loc 1 291 42 is_stmt 0 view .LVU204
 692 014c 4346     		mov	r3, r8
 693 014e DB17     		asrs	r3, r3, #31
 291:Core/Src/main.c **** 
 694              		.loc 1 291 54 view .LVU205
 695 0150 4246     		mov	r2, r8
 696 0152 1900     		movs	r1, r3
 697 0154 4046     		mov	r0, r8
 698              	.LVL22:
 291:Core/Src/main.c **** 
 699              		.loc 1 291 42 view .LVU206
 700 0156 0593     		str	r3, [sp, #20]
 291:Core/Src/main.c **** 
 701              		.loc 1 291 54 view .LVU207
 702 0158 FFF7FEFF 		bl	__aeabi_lmul
 703              	.LVL23:
 291:Core/Src/main.c **** 
 704              		.loc 1 291 59 view .LVU208
 705 015c 0200     		movs	r2, r0
 706 015e 0B00     		movs	r3, r1
 707 0160 9219     		adds	r2, r2, r6
 708 0162 7B41     		adcs	r3, r3, r7
 294:Core/Src/main.c **** 
 709              		.loc 1 294 21 view .LVU209
ARM GAS  C:\Users\maari\AppData\Local\Temp\ccZYJnBB.s 			page 26


 710 0164 4C46     		mov	r4, r9
 291:Core/Src/main.c **** 
 711              		.loc 1 291 77 view .LVU210
 712 0166 1804     		lsls	r0, r3, #16
 713 0168 120C     		lsrs	r2, r2, #16
 714 016a 1043     		orrs	r0, r2
 715              	.LVL24:
 294:Core/Src/main.c **** 
 716              		.loc 1 294 17 is_stmt 1 view .LVU211
 294:Core/Src/main.c **** 
 717              		.loc 1 294 34 is_stmt 0 view .LVU212
 718 016c C317     		asrs	r3, r0, #31
 294:Core/Src/main.c **** 
 719              		.loc 1 294 21 view .LVU213
 720 016e E517     		asrs	r5, r4, #31
 294:Core/Src/main.c **** 
 721              		.loc 1 294 34 view .LVU214
 722 0170 0090     		str	r0, [sp]
 723 0172 0193     		str	r3, [sp, #4]
 724 0174 009A     		ldr	r2, [sp]
 725 0176 019B     		ldr	r3, [sp, #4]
 726              	.LVL25:
 294:Core/Src/main.c **** 
 727              		.loc 1 294 34 view .LVU215
 728 0178 1219     		adds	r2, r2, r4
 729 017a 6B41     		adcs	r3, r3, r5
 294:Core/Src/main.c **** 
 730              		.loc 1 294 20 view .LVU216
 731 017c 002B     		cmp	r3, #0
 732 017e 00DD     		ble	.LCB610
 733 0180 89E0     		b	.L19	@long jump
 734              	.LCB610:
 294:Core/Src/main.c **** 
 735              		.loc 1 294 20 view .LVU217
 736 0182 00D1     		bne	.LCB613
 737 0184 82E0     		b	.L23	@long jump
 738              	.LCB613:
 739              	.LVL26:
 740              	.L21:
 296:Core/Src/main.c **** 
 741              		.loc 1 296 17 is_stmt 1 view .LVU218
 296:Core/Src/main.c **** 
 742              		.loc 1 296 36 is_stmt 0 view .LVU219
 743 0186 4B46     		mov	r3, r9
 744 0188 181A     		subs	r0, r3, r0
 296:Core/Src/main.c **** 
 745              		.loc 1 296 25 view .LVU220
 746 018a 069B     		ldr	r3, [sp, #24]
 299:Core/Src/main.c ****                 xi = temp;           // following mandelbrot.py
 747              		.loc 1 299 45 view .LVU221
 748 018c 4246     		mov	r2, r8
 296:Core/Src/main.c **** 
 749              		.loc 1 296 25 view .LVU222
 750 018e 9946     		mov	r9, r3
 299:Core/Src/main.c ****                 xi = temp;           // following mandelbrot.py
 751              		.loc 1 299 45 view .LVU223
 752 0190 5946     		mov	r1, fp
ARM GAS  C:\Users\maari\AppData\Local\Temp\ccZYJnBB.s 			page 27


 753 0192 059B     		ldr	r3, [sp, #20]
 296:Core/Src/main.c **** 
 754              		.loc 1 296 25 view .LVU224
 755 0194 8144     		add	r9, r9, r0
 756              	.LVL27:
 299:Core/Src/main.c ****                 xi = temp;           // following mandelbrot.py
 757              		.loc 1 299 17 is_stmt 1 view .LVU225
 299:Core/Src/main.c ****                 xi = temp;           // following mandelbrot.py
 758              		.loc 1 299 45 is_stmt 0 view .LVU226
 759 0196 5046     		mov	r0, r10
 760 0198 FFF7FEFF 		bl	__aeabi_lmul
 761              	.LVL28:
 299:Core/Src/main.c ****                 xi = temp;           // following mandelbrot.py
 762              		.loc 1 299 50 view .LVU227
 763 019c 8022     		movs	r2, #128
 764 019e 0023     		movs	r3, #0
 765 01a0 D201     		lsls	r2, r2, #7
 766 01a2 8018     		adds	r0, r0, r2
 767 01a4 5941     		adcs	r1, r1, r3
 299:Core/Src/main.c ****                 xi = temp;           // following mandelbrot.py
 768              		.loc 1 299 68 view .LVU228
 769 01a6 4B04     		lsls	r3, r1, #17
 770 01a8 C00B     		lsrs	r0, r0, #15
 771 01aa 1843     		orrs	r0, r3
 299:Core/Src/main.c ****                 xi = temp;           // following mandelbrot.py
 772              		.loc 1 299 20 view .LVU229
 773 01ac 079B     		ldr	r3, [sp, #28]
 774 01ae 9846     		mov	r8, r3
 302:Core/Src/main.c ****             }
 775              		.loc 1 302 17 view .LVU230
 776 01b0 029B     		ldr	r3, [sp, #8]
 299:Core/Src/main.c ****                 xi = temp;           // following mandelbrot.py
 777              		.loc 1 299 20 view .LVU231
 778 01b2 8044     		add	r8, r8, r0
 300:Core/Src/main.c **** 
 779              		.loc 1 300 17 is_stmt 1 view .LVU232
 780              	.LVL29:
 302:Core/Src/main.c ****             }
 781              		.loc 1 302 17 view .LVU233
 782 01b4 0133     		adds	r3, r3, #1
 783 01b6 0293     		str	r3, [sp, #8]
 784              	.LVL30:
 302:Core/Src/main.c ****             }
 785              		.loc 1 302 17 is_stmt 0 view .LVU234
 786              	.LBE85:
 289:Core/Src/main.c ****                 int32_t xi2 = (int32_t)(((int64_t)xi * xi + (1 << (Q - 1))) >> Q);
 787              		.loc 1 289 30 is_stmt 1 view .LVU235
 788 01b8 642B     		cmp	r3, #100
 789 01ba B8D1     		bne	.L13
 790 01bc 6422     		movs	r2, #100
 791 01be 0023     		movs	r3, #0
 792              	.LVL31:
 289:Core/Src/main.c ****                 int32_t xi2 = (int32_t)(((int64_t)xi * xi + (1 << (Q - 1))) >> Q);
 793              		.loc 1 289 30 is_stmt 0 view .LVU236
 794 01c0 0892     		str	r2, [sp, #32]
 795 01c2 0993     		str	r3, [sp, #36]
 796              	.LVL32:
ARM GAS  C:\Users\maari\AppData\Local\Temp\ccZYJnBB.s 			page 28


 797              	.L12:
 305:Core/Src/main.c ****             x0 += x_step; // add step instead of multiplying new x value
 798              		.loc 1 305 13 is_stmt 1 view .LVU237
 305:Core/Src/main.c ****             x0 += x_step; // add step instead of multiplying new x value
 799              		.loc 1 305 28 is_stmt 0 view .LVU238
 800 01c4 0A9A     		ldr	r2, [sp, #40]
 801 01c6 0B9B     		ldr	r3, [sp, #44]
 802 01c8 0898     		ldr	r0, [sp, #32]
 803 01ca 0999     		ldr	r1, [sp, #36]
 804 01cc 1218     		adds	r2, r2, r0
 805 01ce 4B41     		adcs	r3, r3, r1
 806 01d0 0A92     		str	r2, [sp, #40]
 807 01d2 0B93     		str	r3, [sp, #44]
 808              	.LVL33:
 306:Core/Src/main.c ****         }
 809              		.loc 1 306 13 is_stmt 1 view .LVU239
 306:Core/Src/main.c ****         }
 810              		.loc 1 306 16 is_stmt 0 view .LVU240
 811 01d4 0E9A     		ldr	r2, [sp, #56]
 812              	.LVL34:
 306:Core/Src/main.c ****         }
 813              		.loc 1 306 16 view .LVU241
 814 01d6 069B     		ldr	r3, [sp, #24]
 815 01d8 9446     		mov	ip, r2
 816 01da 6344     		add	r3, r3, ip
 817 01dc 0693     		str	r3, [sp, #24]
 818              	.LVL35:
 306:Core/Src/main.c ****         }
 819              		.loc 1 306 16 view .LVU242
 820              	.LBE92:
 285:Core/Src/main.c ****             int32_t xi = 0, yi = 0;
 821              		.loc 1 285 36 is_stmt 1 discriminator 2 view .LVU243
 822 01de 0C9B     		ldr	r3, [sp, #48]
 823              	.LVL36:
 285:Core/Src/main.c ****             int32_t xi = 0, yi = 0;
 824              		.loc 1 285 27 is_stmt 0 discriminator 1 view .LVU244
 825 01e0 0D9A     		ldr	r2, [sp, #52]
 285:Core/Src/main.c ****             int32_t xi = 0, yi = 0;
 826              		.loc 1 285 36 discriminator 2 view .LVU245
 827 01e2 0133     		adds	r3, r3, #1
 828 01e4 0C93     		str	r3, [sp, #48]
 829              	.LVL37:
 285:Core/Src/main.c ****             int32_t xi = 0, yi = 0;
 830              		.loc 1 285 27 is_stmt 1 discriminator 1 view .LVU246
 831 01e6 9A42     		cmp	r2, r3
 832 01e8 98D1     		bne	.L15
 833              	.LBE99:
 308:Core/Src/main.c ****     }
 834              		.loc 1 308 9 view .LVU247
 308:Core/Src/main.c ****     }
 835              		.loc 1 308 12 is_stmt 0 view .LVU248
 836 01ea 129A     		ldr	r2, [sp, #72]
 837 01ec 079B     		ldr	r3, [sp, #28]
 838              	.LVL38:
 308:Core/Src/main.c ****     }
 839              		.loc 1 308 12 view .LVU249
 840 01ee 9446     		mov	ip, r2
ARM GAS  C:\Users\maari\AppData\Local\Temp\ccZYJnBB.s 			page 29


 841 01f0 6344     		add	r3, r3, ip
 842 01f2 0793     		str	r3, [sp, #28]
 843              	.LVL39:
 308:Core/Src/main.c ****     }
 844              		.loc 1 308 12 view .LVU250
 845              	.LBE105:
 282:Core/Src/main.c ****         int32_t x0 = x_left;			// starting constant
 846              		.loc 1 282 33 is_stmt 1 discriminator 2 view .LVU251
 847 01f4 0F9B     		ldr	r3, [sp, #60]
 848              	.LVL40:
 282:Core/Src/main.c ****         int32_t x0 = x_left;			// starting constant
 849              		.loc 1 282 23 is_stmt 0 discriminator 1 view .LVU252
 850 01f6 0D9A     		ldr	r2, [sp, #52]
 282:Core/Src/main.c ****         int32_t x0 = x_left;			// starting constant
 851              		.loc 1 282 33 discriminator 2 view .LVU253
 852 01f8 0133     		adds	r3, r3, #1
 853 01fa 0F93     		str	r3, [sp, #60]
 854              	.LVL41:
 282:Core/Src/main.c ****         int32_t x0 = x_left;			// starting constant
 855              		.loc 1 282 23 is_stmt 1 discriminator 1 view .LVU254
 856 01fc 9A42     		cmp	r2, r3
 857 01fe 89D1     		bne	.L8
 858 0200 169B     		ldr	r3, [sp, #88]
 859              	.LVL42:
 282:Core/Src/main.c ****         int32_t x0 = x_left;			// starting constant
 860              		.loc 1 282 23 is_stmt 0 discriminator 1 view .LVU255
 861 0202 0294     		str	r4, [sp, #8]
 862 0204 0395     		str	r5, [sp, #12]
 863              	.LVL43:
 282:Core/Src/main.c ****         int32_t x0 = x_left;			// starting constant
 864              		.loc 1 282 23 discriminator 1 view .LVU256
 865 0206 9846     		mov	r8, r3
 866 0208 179B     		ldr	r3, [sp, #92]
 867 020a 9A46     		mov	r10, r3
 868              	.LVL44:
 869              	.L9:
 282:Core/Src/main.c ****         int32_t x0 = x_left;			// starting constant
 870              		.loc 1 282 23 discriminator 1 view .LVU257
 871              	.LBE114:
 311:Core/Src/main.c **** }
 872              		.loc 1 311 5 is_stmt 1 view .LVU258
 311:Core/Src/main.c **** }
 873              		.loc 1 311 5 is_stmt 0 view .LVU259
 874              	.LBE120:
 875              	.LBE134:
 131:Core/Src/main.c ****   //checksum = calculate_mandelbrot_double(initial_width, initial_height, MAX_ITER);
 876              		.loc 1 131 12 discriminator 1 view .LVU260
 877 020c 0A9B     		ldr	r3, [sp, #40]
 878 020e 0B9C     		ldr	r4, [sp, #44]
 879 0210 159A     		ldr	r2, [sp, #84]
 880 0212 1360     		str	r3, [r2]
 881 0214 5460     		str	r4, [r2, #4]
 135:Core/Src/main.c **** 
 882              		.loc 1 135 3 is_stmt 1 view .LVU261
 135:Core/Src/main.c **** 
 883              		.loc 1 135 14 is_stmt 0 view .LVU262
 884 0216 FFF7FEFF 		bl	HAL_GetTick
ARM GAS  C:\Users\maari\AppData\Local\Temp\ccZYJnBB.s 			page 30


 885              	.LVL45:
 135:Core/Src/main.c **** 
 886              		.loc 1 135 14 discriminator 1 view .LVU263
 887 021a 0023     		movs	r3, #0
 888 021c 1193     		str	r3, [sp, #68]
 135:Core/Src/main.c **** 
 889              		.loc 1 135 12 discriminator 1 view .LVU264
 890 021e 139B     		ldr	r3, [sp, #76]
 135:Core/Src/main.c **** 
 891              		.loc 1 135 14 discriminator 1 view .LVU265
 892 0220 1090     		str	r0, [sp, #64]
 135:Core/Src/main.c **** 
 893              		.loc 1 135 12 discriminator 1 view .LVU266
 894 0222 1098     		ldr	r0, [sp, #64]
 895 0224 1199     		ldr	r1, [sp, #68]
 896 0226 1860     		str	r0, [r3]
 897 0228 5960     		str	r1, [r3, #4]
 141:Core/Src/main.c **** 
 898              		.loc 1 141 3 is_stmt 1 view .LVU267
 899              	.LBB135:
 900              	.LBI135:
 377:Core/Src/main.c **** {
 901              		.loc 1 377 24 view .LVU268
 902              	.LBB136:
 379:Core/Src/main.c **** }
 903              		.loc 1 379 5 view .LVU269
 379:Core/Src/main.c **** }
 904              		.loc 1 379 16 is_stmt 0 view .LVU270
 905 022a 8023     		movs	r3, #128
 906 022c DB05     		lsls	r3, r3, #23
 907 022e 5B6A     		ldr	r3, [r3, #36]
 908              	.LBE136:
 909              	.LBE135:
 146:Core/Src/main.c **** 
 910              		.loc 1 146 3 is_stmt 1 view .LVU271
 146:Core/Src/main.c **** 
 911              		.loc 1 146 29 is_stmt 0 view .LVU272
 912 0230 5346     		mov	r3, r10
 913 0232 1A68     		ldr	r2, [r3]
 914 0234 5B68     		ldr	r3, [r3, #4]
 915 0236 801A     		subs	r0, r0, r2
 916 0238 9941     		sbcs	r1, r1, r3
 917 023a 0B00     		movs	r3, r1
 918 023c 0200     		movs	r2, r0
 146:Core/Src/main.c **** 
 919              		.loc 1 146 18 view .LVU273
 920 023e 1499     		ldr	r1, [sp, #80]
 921 0240 0A60     		str	r2, [r1]
 922 0242 4B60     		str	r3, [r1, #4]
 923              	.LBE139:
 119:Core/Src/main.c ****   {
 924              		.loc 1 119 25 is_stmt 1 discriminator 3 view .LVU274
 119:Core/Src/main.c ****   {
 925              		.loc 1 119 19 discriminator 1 view .LVU275
 926 0244 0423     		movs	r3, #4
 927 0246 9C46     		mov	ip, r3
 928 0248 204B     		ldr	r3, .L24+36
ARM GAS  C:\Users\maari\AppData\Local\Temp\ccZYJnBB.s 			page 31


 929 024a E044     		add	r8, r8, ip
 930 024c 9845     		cmp	r8, r3
 931 024e 00D0     		beq	.LCB795
 932 0250 22E7     		b	.L16	@long jump
 933              	.LCB795:
 934              	.LBE144:
 158:Core/Src/main.c ****   while (1)
 935              		.loc 1 158 3 view .LVU276
 158:Core/Src/main.c ****   while (1)
 936              		.loc 1 158 13 is_stmt 0 view .LVU277
 937 0252 FFF7FEFF 		bl	HAL_GetTick
 938              	.LVL46:
 158:Core/Src/main.c ****   while (1)
 939              		.loc 1 158 11 discriminator 1 view .LVU278
 940 0256 1E4B     		ldr	r3, .L24+40
 941 0258 1860     		str	r0, [r3]
 942              	.L17:
 159:Core/Src/main.c ****   {
 943              		.loc 1 159 3 is_stmt 1 view .LVU279
 165:Core/Src/main.c **** 
 944              		.loc 1 165 7 view .LVU280
 945 025a 0122     		movs	r2, #1
 946 025c 0121     		movs	r1, #1
 947 025e 1348     		ldr	r0, .L24+4
 948 0260 FFF7FEFF 		bl	HAL_GPIO_WritePin
 949              	.LVL47:
 172:Core/Src/main.c **** 
 950              		.loc 1 172 7 view .LVU281
 951 0264 0122     		movs	r2, #1
 952 0266 0221     		movs	r1, #2
 953 0268 1048     		ldr	r0, .L24+4
 954 026a FFF7FEFF 		bl	HAL_GPIO_WritePin
 955              	.LVL48:
 176:Core/Src/main.c **** 
 956              		.loc 1 176 7 view .LVU282
 957 026e FA20     		movs	r0, #250
 958 0270 8000     		lsls	r0, r0, #2
 959 0272 FFF7FEFF 		bl	HAL_Delay
 960              	.LVL49:
 179:Core/Src/main.c **** 	  	  HAL_GPIO_WritePin(GPIOB, GPIO_PIN_1, GPIO_PIN_RESET);
 961              		.loc 1 179 7 view .LVU283
 962 0276 0022     		movs	r2, #0
 963 0278 0121     		movs	r1, #1
 964 027a 0C48     		ldr	r0, .L24+4
 965 027c FFF7FEFF 		bl	HAL_GPIO_WritePin
 966              	.LVL50:
 180:Core/Src/main.c **** 
 967              		.loc 1 180 7 discriminator 1 view .LVU284
 968 0280 0022     		movs	r2, #0
 969 0282 0221     		movs	r1, #2
 970 0284 0948     		ldr	r0, .L24+4
 971 0286 FFF7FEFF 		bl	HAL_GPIO_WritePin
 972              	.LVL51:
 159:Core/Src/main.c ****   {
 973              		.loc 1 159 9 view .LVU285
 974 028a E6E7     		b	.L17
 975              	.LVL52:
ARM GAS  C:\Users\maari\AppData\Local\Temp\ccZYJnBB.s 			page 32


 976              	.L23:
 977              	.LBB145:
 978              	.LBB140:
 979              	.LBB137:
 980              	.LBB121:
 981              	.LBB115:
 982              	.LBB106:
 983              	.LBB100:
 984              	.LBB93:
 985              	.LBB86:
 294:Core/Src/main.c **** 
 986              		.loc 1 294 20 is_stmt 0 view .LVU286
 987 028c 8021     		movs	r1, #128
 988 028e C902     		lsls	r1, r1, #11
 989 0290 8A42     		cmp	r2, r1
 990 0292 00D8     		bhi	.LCB862
 991 0294 77E7     		b	.L21	@long jump
 992              	.LCB862:
 993              	.L19:
 994              	.LBE86:
 305:Core/Src/main.c ****             x0 += x_step; // add step instead of multiplying new x value
 995              		.loc 1 305 28 view .LVU287
 996 0296 029B     		ldr	r3, [sp, #8]
 997 0298 0893     		str	r3, [sp, #32]
 998 029a DB17     		asrs	r3, r3, #31
 999 029c 0993     		str	r3, [sp, #36]
 1000 029e 91E7     		b	.L12
 1001              	.LVL53:
 1002              	.L22:
 305:Core/Src/main.c ****             x0 += x_step; // add step instead of multiplying new x value
 1003              		.loc 1 305 28 view .LVU288
 1004              	.LBE93:
 1005              	.LBE100:
 1006              	.LBE106:
 1007              	.LBE115:
 265:Core/Src/main.c **** 
 1008              		.loc 1 265 14 view .LVU289
 1009 02a0 0024     		movs	r4, #0
 1010              	.LVL54:
 265:Core/Src/main.c **** 
 1011              		.loc 1 265 14 view .LVU290
 1012 02a2 0A93     		str	r3, [sp, #40]
 1013 02a4 0B94     		str	r4, [sp, #44]
 1014 02a6 B1E7     		b	.L9
 1015              	.L25:
 1016              		.align	2
 1017              	.L24:
 1018 02a8 00100240 		.word	1073876992
 1019 02ac 00040048 		.word	1207960576
 1020 02b0 00000000 		.word	imageDimensions
 1021 02b4 00000000 		.word	start_time
 1022 02b8 00000000 		.word	checksum
 1023 02bc 00000000 		.word	end_time
 1024 02c0 00000000 		.word	execution_time
 1025 02c4 0000FFFF 		.word	-65536
 1026 02c8 0080FDFF 		.word	-163840
 1027 02cc 14000000 		.word	imageDimensions+20
ARM GAS  C:\Users\maari\AppData\Local\Temp\ccZYJnBB.s 			page 33


 1028 02d0 00000000 		.word	runtime
 1029              	.LBE121:
 1030              	.LBE137:
 1031              	.LBE140:
 1032              	.LBE145:
 1033              		.cfi_endproc
 1034              	.LFE43:
 1036              		.section	.text.calculate_mandelbrot_fixed_point_arithmetic,"ax",%progbits
 1037              		.align	1
 1038              		.p2align 2,,3
 1039              		.global	calculate_mandelbrot_fixed_point_arithmetic
 1040              		.syntax unified
 1041              		.code	16
 1042              		.thumb_func
 1044              	calculate_mandelbrot_fixed_point_arithmetic:
 1045              	.LVL55:
 1046              	.LFB46:
 264:Core/Src/main.c ****     uint64_t mandelbrot_sum = 0;
 1047              		.loc 1 264 1 is_stmt 1 view -0
 1048              		.cfi_startproc
 1049              		@ args = 0, pretend = 0, frame = 72
 1050              		@ frame_needed = 0, uses_anonymous_args = 0
 265:Core/Src/main.c **** 
 1051              		.loc 1 265 5 view .LVU292
 271:Core/Src/main.c ****     const int32_t y_top  = -ONE;               // -1.0 as y starting point
 1052              		.loc 1 271 5 view .LVU293
 272:Core/Src/main.c **** 
 1053              		.loc 1 272 5 view .LVU294
 276:Core/Src/main.c ****     const int32_t y_step = (int32_t)(((int64_t)2 * ONE) / height);				// Bit shift the top before d
 1054              		.loc 1 276 5 view .LVU295
 264:Core/Src/main.c ****     uint64_t mandelbrot_sum = 0;
 1055              		.loc 1 264 1 is_stmt 0 view .LVU296
 1056 0000 F0B5     		push	{r4, r5, r6, r7, lr}
 1057              	.LCFI5:
 1058              		.cfi_def_cfa_offset 20
 1059              		.cfi_offset 4, -20
 1060              		.cfi_offset 5, -16
 1061              		.cfi_offset 6, -12
 1062              		.cfi_offset 7, -8
 1063              		.cfi_offset 14, -4
 1064 0002 DE46     		mov	lr, fp
 1065 0004 4E46     		mov	r6, r9
 1066 0006 5746     		mov	r7, r10
 1067 0008 4546     		mov	r5, r8
 1068 000a E0B5     		push	{r5, r6, r7, lr}
 1069              	.LCFI6:
 1070              		.cfi_def_cfa_offset 36
 1071              		.cfi_offset 8, -36
 1072              		.cfi_offset 9, -32
 1073              		.cfi_offset 10, -28
 1074              		.cfi_offset 11, -24
 1075 000c 93B0     		sub	sp, sp, #76
 1076              	.LCFI7:
 1077              		.cfi_def_cfa_offset 112
 1078              	.LVL56:
 277:Core/Src/main.c **** 
 1079              		.loc 1 277 5 is_stmt 1 view .LVU297
ARM GAS  C:\Users\maari\AppData\Local\Temp\ccZYJnBB.s 			page 34


 264:Core/Src/main.c ****     uint64_t mandelbrot_sum = 0;
 1080              		.loc 1 264 1 is_stmt 0 view .LVU298
 1081 000e 0C90     		str	r0, [sp, #48]
 1082              	.LVL57:
 277:Core/Src/main.c **** 
 1083              		.loc 1 277 57 view .LVU299
 1084 0010 8020     		movs	r0, #128
 1085              	.LVL58:
 264:Core/Src/main.c ****     uint64_t mandelbrot_sum = 0;
 1086              		.loc 1 264 1 view .LVU300
 1087 0012 8946     		mov	r9, r1
 277:Core/Src/main.c **** 
 1088              		.loc 1 277 57 view .LVU301
 1089 0014 CB17     		asrs	r3, r1, #31
 264:Core/Src/main.c ****     uint64_t mandelbrot_sum = 0;
 1090              		.loc 1 264 1 view .LVU302
 1091 0016 0392     		str	r2, [sp, #12]
 277:Core/Src/main.c **** 
 1092              		.loc 1 277 57 view .LVU303
 1093 0018 8002     		lsls	r0, r0, #10
 1094 001a 0A00     		movs	r2, r1
 1095              	.LVL59:
 277:Core/Src/main.c **** 
 1096              		.loc 1 277 57 view .LVU304
 1097 001c 0021     		movs	r1, #0
 1098              	.LVL60:
 277:Core/Src/main.c **** 
 1099              		.loc 1 277 57 view .LVU305
 1100 001e FFF7FEFF 		bl	__aeabi_ldivmod
 1101              	.LVL61:
 279:Core/Src/main.c **** 
 1102              		.loc 1 279 5 is_stmt 1 view .LVU306
 281:Core/Src/main.c ****     for (int y = 0; y < height; ++y) {
 1103              		.loc 1 281 5 view .LVU307
 282:Core/Src/main.c ****         int32_t x0 = x_left;			// starting constant
 1104              		.loc 1 282 5 view .LVU308
 1105              	.LBB146:
 282:Core/Src/main.c ****         int32_t x0 = x_left;			// starting constant
 1106              		.loc 1 282 10 view .LVU309
 282:Core/Src/main.c ****         int32_t x0 = x_left;			// starting constant
 1107              		.loc 1 282 23 discriminator 1 view .LVU310
 1108 0022 4B46     		mov	r3, r9
 1109 0024 002B     		cmp	r3, #0
 1110 0026 0FDD     		ble	.L42
 1111              	.LBE146:
 281:Core/Src/main.c ****     for (int y = 0; y < height; ++y) {
 1112              		.loc 1 281 13 is_stmt 0 view .LVU311
 1113 0028 624B     		ldr	r3, .L55
 1114              	.LBB167:
 282:Core/Src/main.c ****         int32_t x0 = x_left;			// starting constant
 1115              		.loc 1 282 14 view .LVU312
 1116 002a 0026     		movs	r6, #0
 1117              	.LBE167:
 281:Core/Src/main.c ****     for (int y = 0; y < height; ++y) {
 1118              		.loc 1 281 13 view .LVU313
 1119 002c 0493     		str	r3, [sp, #16]
 1120 002e 4A46     		mov	r2, r9
ARM GAS  C:\Users\maari\AppData\Local\Temp\ccZYJnBB.s 			page 35


 1121 0030 0300     		movs	r3, r0
 1122              	.LVL62:
 1123              	.L27:
 1124              	.LBB168:
 1125              	.LBB147:
 1126              	.LBB148:
 285:Core/Src/main.c ****             int32_t xi = 0, yi = 0;
 1127              		.loc 1 285 27 is_stmt 1 discriminator 1 view .LVU314
 1128 0032 0C99     		ldr	r1, [sp, #48]
 1129 0034 0029     		cmp	r1, #0
 1130 0036 14DC     		bgt	.L53
 1131              	.LBE148:
 308:Core/Src/main.c ****     }
 1132              		.loc 1 308 9 view .LVU315
 308:Core/Src/main.c ****     }
 1133              		.loc 1 308 12 is_stmt 0 view .LVU316
 1134 0038 0499     		ldr	r1, [sp, #16]
 1135              	.LBE147:
 282:Core/Src/main.c ****         int32_t x0 = x_left;			// starting constant
 1136              		.loc 1 282 33 discriminator 2 view .LVU317
 1137 003a 0136     		adds	r6, r6, #1
 1138              	.LVL63:
 1139              	.LBB163:
 308:Core/Src/main.c ****     }
 1140              		.loc 1 308 12 view .LVU318
 1141 003c 8C46     		mov	ip, r1
 1142 003e 9C44     		add	ip, ip, r3
 1143 0040 6146     		mov	r1, ip
 1144 0042 0491     		str	r1, [sp, #16]
 1145              	.LVL64:
 308:Core/Src/main.c ****     }
 1146              		.loc 1 308 12 view .LVU319
 1147              	.LBE163:
 282:Core/Src/main.c ****         int32_t x0 = x_left;			// starting constant
 1148              		.loc 1 282 33 is_stmt 1 discriminator 2 view .LVU320
 282:Core/Src/main.c ****         int32_t x0 = x_left;			// starting constant
 1149              		.loc 1 282 23 discriminator 1 view .LVU321
 1150 0044 B242     		cmp	r2, r6
 1151 0046 F4D1     		bne	.L27
 1152              	.LVL65:
 1153              	.L42:
 282:Core/Src/main.c ****         int32_t x0 = x_left;			// starting constant
 1154              		.loc 1 282 23 is_stmt 0 discriminator 1 view .LVU322
 1155 0048 0023     		movs	r3, #0
 1156 004a 0024     		movs	r4, #0
 1157 004c 0693     		str	r3, [sp, #24]
 1158 004e 0794     		str	r4, [sp, #28]
 1159              	.LBE168:
 311:Core/Src/main.c **** }
 1160              		.loc 1 311 5 is_stmt 1 view .LVU323
 1161              	.LVL66:
 1162              	.L26:
 312:Core/Src/main.c **** 
 1163              		.loc 1 312 1 is_stmt 0 view .LVU324
 1164 0050 0698     		ldr	r0, [sp, #24]
 1165 0052 0799     		ldr	r1, [sp, #28]
 1166 0054 13B0     		add	sp, sp, #76
ARM GAS  C:\Users\maari\AppData\Local\Temp\ccZYJnBB.s 			page 36


 1167              		@ sp needed
 1168 0056 F0BC     		pop	{r4, r5, r6, r7}
 1169 0058 BB46     		mov	fp, r7
 1170 005a B246     		mov	r10, r6
 1171 005c A946     		mov	r9, r5
 1172 005e A046     		mov	r8, r4
 1173 0060 F0BD     		pop	{r4, r5, r6, r7, pc}
 1174              	.LVL67:
 1175              	.L53:
 276:Core/Src/main.c ****     const int32_t y_step = (int32_t)(((int64_t)2 * ONE) / height);				// Bit shift the top before d
 1176              		.loc 1 276 57 view .LVU325
 1177 0062 E020     		movs	r0, #224
 1178              	.LVL68:
 276:Core/Src/main.c ****     const int32_t y_step = (int32_t)(((int64_t)2 * ONE) / height);				// Bit shift the top before d
 1179              		.loc 1 276 62 view .LVU326
 1180 0064 9146     		mov	r9, r2
 1181 0066 4A00     		lsls	r2, r1, #1
 1182              	.LVL69:
 276:Core/Src/main.c ****     const int32_t y_step = (int32_t)(((int64_t)2 * ONE) / height);				// Bit shift the top before d
 1183              		.loc 1 276 62 view .LVU327
 1184 0068 9846     		mov	r8, r3
 276:Core/Src/main.c ****     const int32_t y_step = (int32_t)(((int64_t)2 * ONE) / height);				// Bit shift the top before d
 1185              		.loc 1 276 57 view .LVU328
 1186 006a 0021     		movs	r1, #0
 276:Core/Src/main.c ****     const int32_t y_step = (int32_t)(((int64_t)2 * ONE) / height);				// Bit shift the top before d
 1187              		.loc 1 276 62 view .LVU329
 1188 006c D317     		asrs	r3, r2, #31
 1189              	.LVL70:
 276:Core/Src/main.c ****     const int32_t y_step = (int32_t)(((int64_t)2 * ONE) / height);				// Bit shift the top before d
 1190              		.loc 1 276 57 view .LVU330
 1191 006e C002     		lsls	r0, r0, #11
 1192 0070 FFF7FEFF 		bl	__aeabi_ldivmod
 1193              	.LVL71:
 276:Core/Src/main.c ****     const int32_t y_step = (int32_t)(((int64_t)2 * ONE) / height);				// Bit shift the top before d
 1194              		.loc 1 276 19 view .LVU331
 1195 0074 0023     		movs	r3, #0
 1196 0076 0022     		movs	r2, #0
 1197 0078 0692     		str	r2, [sp, #24]
 1198 007a 0793     		str	r3, [sp, #28]
 1199              	.LBB169:
 1200              	.LBB164:
 1201              	.LBB159:
 1202              	.LBB149:
 1203              	.LBB150:
 290:Core/Src/main.c ****                 int32_t yi2 = (int32_t)(((int64_t)yi * yi + (1 << (Q - 1))) >> Q);
 1204              		.loc 1 290 59 view .LVU332
 1205 007c 4346     		mov	r3, r8
 1206 007e 1093     		str	r3, [sp, #64]
 1207 0080 4B46     		mov	r3, r9
 1208              	.LBE150:
 1209              	.LBE149:
 1210              	.LBE159:
 1211              	.LBE164:
 1212              	.LBE169:
 276:Core/Src/main.c ****     const int32_t y_step = (int32_t)(((int64_t)2 * ONE) / height);				// Bit shift the top before d
 1213              		.loc 1 276 57 view .LVU333
 1214 0082 0D90     		str	r0, [sp, #52]
ARM GAS  C:\Users\maari\AppData\Local\Temp\ccZYJnBB.s 			page 37


 1215              	.LBB170:
 1216              	.LBB165:
 1217              	.LBB160:
 1218              	.LBB156:
 1219              	.LBB151:
 290:Core/Src/main.c ****                 int32_t yi2 = (int32_t)(((int64_t)yi * yi + (1 << (Q - 1))) >> Q);
 1220              		.loc 1 290 59 view .LVU334
 1221 0084 0F96     		str	r6, [sp, #60]
 1222 0086 1193     		str	r3, [sp, #68]
 1223              	.LVL72:
 1224              	.L37:
 290:Core/Src/main.c ****                 int32_t yi2 = (int32_t)(((int64_t)yi * yi + (1 << (Q - 1))) >> Q);
 1225              		.loc 1 290 59 view .LVU335
 1226              	.LBE151:
 1227              	.LBE156:
 285:Core/Src/main.c ****             int32_t xi = 0, yi = 0;
 1228              		.loc 1 285 18 view .LVU336
 1229 0088 0023     		movs	r3, #0
 1230 008a 0593     		str	r3, [sp, #20]
 1231              	.LBE160:
 283:Core/Src/main.c **** 
 1232              		.loc 1 283 17 view .LVU337
 1233 008c 4A4B     		ldr	r3, .L55+4
 1234 008e 0293     		str	r3, [sp, #8]
 1235              	.L40:
 1236              	.LVL73:
 1237              	.LBB161:
 1238              	.LBB157:
 289:Core/Src/main.c ****                 int32_t xi2 = (int32_t)(((int64_t)xi * xi + (1 << (Q - 1))) >> Q);
 1239              		.loc 1 289 30 is_stmt 1 view .LVU338
 1240 0090 039B     		ldr	r3, [sp, #12]
 1241 0092 002B     		cmp	r3, #0
 1242 0094 00DC     		bgt	.LCB1139
 1243 0096 7FE0     		b	.L36	@long jump
 1244              	.LCB1139:
 305:Core/Src/main.c ****             x0 += x_step; // add step instead of multiplying new x value
 1245              		.loc 1 305 28 is_stmt 0 view .LVU339
 1246 0098 DB17     		asrs	r3, r3, #31
 1247 009a 0E93     		str	r3, [sp, #56]
 1248              	.LVL74:
 1249              	.L34:
 287:Core/Src/main.c **** 
 1250              		.loc 1 287 17 view .LVU340
 1251 009c 0023     		movs	r3, #0
 1252              	.LBB152:
 291:Core/Src/main.c **** 
 1253              		.loc 1 291 25 view .LVU341
 1254 009e 0020     		movs	r0, #0
 290:Core/Src/main.c ****                 int32_t yi2 = (int32_t)(((int64_t)yi * yi + (1 << (Q - 1))) >> Q);
 1255              		.loc 1 290 25 view .LVU342
 1256 00a0 0027     		movs	r7, #0
 1257              	.LBE152:
 287:Core/Src/main.c **** 
 1258              		.loc 1 287 17 view .LVU343
 1259 00a2 9A46     		mov	r10, r3
 1260              	.LBB153:
 291:Core/Src/main.c **** 
ARM GAS  C:\Users\maari\AppData\Local\Temp\ccZYJnBB.s 			page 38


 1261              		.loc 1 291 42 view .LVU344
 1262 00a4 0026     		movs	r6, #0
 1263 00a6 9B46     		mov	fp, r3
 290:Core/Src/main.c ****                 int32_t yi2 = (int32_t)(((int64_t)yi * yi + (1 << (Q - 1))) >> Q);
 1264              		.loc 1 290 42 view .LVU345
 1265 00a8 9846     		mov	r8, r3
 1266 00aa 9946     		mov	r9, r3
 1267 00ac 2AE0     		b	.L48
 1268              	.LVL75:
 1269              	.L33:
 290:Core/Src/main.c ****                 int32_t yi2 = (int32_t)(((int64_t)yi * yi + (1 << (Q - 1))) >> Q);
 1270              		.loc 1 290 17 is_stmt 1 view .LVU346
 290:Core/Src/main.c ****                 int32_t yi2 = (int32_t)(((int64_t)yi * yi + (1 << (Q - 1))) >> Q);
 1271              		.loc 1 290 42 is_stmt 0 view .LVU347
 1272 00ae FB17     		asrs	r3, r7, #31
 290:Core/Src/main.c ****                 int32_t yi2 = (int32_t)(((int64_t)yi * yi + (1 << (Q - 1))) >> Q);
 1273              		.loc 1 290 54 view .LVU348
 1274 00b0 3A00     		movs	r2, r7
 1275 00b2 3800     		movs	r0, r7
 1276 00b4 1900     		movs	r1, r3
 290:Core/Src/main.c ****                 int32_t yi2 = (int32_t)(((int64_t)yi * yi + (1 << (Q - 1))) >> Q);
 1277              		.loc 1 290 42 view .LVU349
 1278 00b6 9946     		mov	r9, r3
 290:Core/Src/main.c ****                 int32_t yi2 = (int32_t)(((int64_t)yi * yi + (1 << (Q - 1))) >> Q);
 1279              		.loc 1 290 54 view .LVU350
 1280 00b8 FFF7FEFF 		bl	__aeabi_lmul
 1281              	.LVL76:
 290:Core/Src/main.c ****                 int32_t yi2 = (int32_t)(((int64_t)yi * yi + (1 << (Q - 1))) >> Q);
 1282              		.loc 1 290 59 view .LVU351
 1283 00bc 8022     		movs	r2, #128
 1284 00be 0023     		movs	r3, #0
 1285 00c0 1202     		lsls	r2, r2, #8
 1286 00c2 8018     		adds	r0, r0, r2
 1287 00c4 5941     		adcs	r1, r1, r3
 290:Core/Src/main.c ****                 int32_t yi2 = (int32_t)(((int64_t)yi * yi + (1 << (Q - 1))) >> Q);
 1288              		.loc 1 290 42 view .LVU352
 1289 00c6 B846     		mov	r8, r7
 291:Core/Src/main.c **** 
 1290              		.loc 1 291 42 view .LVU353
 1291 00c8 F317     		asrs	r3, r6, #31
 290:Core/Src/main.c ****                 int32_t yi2 = (int32_t)(((int64_t)yi * yi + (1 << (Q - 1))) >> Q);
 1292              		.loc 1 290 77 view .LVU354
 1293 00ca 0F04     		lsls	r7, r1, #16
 1294              	.LVL77:
 290:Core/Src/main.c ****                 int32_t yi2 = (int32_t)(((int64_t)yi * yi + (1 << (Q - 1))) >> Q);
 1295              		.loc 1 290 77 view .LVU355
 1296 00cc 000C     		lsrs	r0, r0, #16
 1297 00ce 0743     		orrs	r7, r0
 1298              	.LVL78:
 291:Core/Src/main.c **** 
 1299              		.loc 1 291 17 is_stmt 1 view .LVU356
 291:Core/Src/main.c **** 
 1300              		.loc 1 291 54 is_stmt 0 view .LVU357
 1301 00d0 3200     		movs	r2, r6
 1302 00d2 1900     		movs	r1, r3
 1303 00d4 3000     		movs	r0, r6
 291:Core/Src/main.c **** 
ARM GAS  C:\Users\maari\AppData\Local\Temp\ccZYJnBB.s 			page 39


 1304              		.loc 1 291 42 view .LVU358
 1305 00d6 9B46     		mov	fp, r3
 291:Core/Src/main.c **** 
 1306              		.loc 1 291 54 view .LVU359
 1307 00d8 FFF7FEFF 		bl	__aeabi_lmul
 1308              	.LVL79:
 291:Core/Src/main.c **** 
 1309              		.loc 1 291 59 view .LVU360
 1310 00dc 8022     		movs	r2, #128
 1311 00de 0023     		movs	r3, #0
 1312 00e0 1202     		lsls	r2, r2, #8
 1313 00e2 1218     		adds	r2, r2, r0
 1314 00e4 4B41     		adcs	r3, r3, r1
 294:Core/Src/main.c **** 
 1315              		.loc 1 294 21 view .LVU361
 1316 00e6 3C00     		movs	r4, r7
 291:Core/Src/main.c **** 
 1317              		.loc 1 291 77 view .LVU362
 1318 00e8 1804     		lsls	r0, r3, #16
 1319 00ea 120C     		lsrs	r2, r2, #16
 1320 00ec 1043     		orrs	r0, r2
 1321              	.LVL80:
 294:Core/Src/main.c **** 
 1322              		.loc 1 294 17 is_stmt 1 view .LVU363
 294:Core/Src/main.c **** 
 1323              		.loc 1 294 34 is_stmt 0 view .LVU364
 1324 00ee C317     		asrs	r3, r0, #31
 294:Core/Src/main.c **** 
 1325              		.loc 1 294 21 view .LVU365
 1326 00f0 FD17     		asrs	r5, r7, #31
 294:Core/Src/main.c **** 
 1327              		.loc 1 294 34 view .LVU366
 1328 00f2 0090     		str	r0, [sp]
 1329 00f4 0193     		str	r3, [sp, #4]
 1330 00f6 009A     		ldr	r2, [sp]
 1331 00f8 019B     		ldr	r3, [sp, #4]
 1332 00fa 1219     		adds	r2, r2, r4
 1333 00fc 6B41     		adcs	r3, r3, r5
 294:Core/Src/main.c **** 
 1334              		.loc 1 294 20 view .LVU367
 1335 00fe 002B     		cmp	r3, #0
 1336 0100 41DC     		bgt	.L43
 294:Core/Src/main.c **** 
 1337              		.loc 1 294 20 view .LVU368
 1338 0102 3CD0     		beq	.L54
 1339              	.LVL81:
 1340              	.L48:
 296:Core/Src/main.c **** 
 1341              		.loc 1 296 17 is_stmt 1 view .LVU369
 296:Core/Src/main.c **** 
 1342              		.loc 1 296 25 is_stmt 0 view .LVU370
 1343 0104 029B     		ldr	r3, [sp, #8]
 299:Core/Src/main.c ****                 xi = temp;           // following mandelbrot.py
 1344              		.loc 1 299 45 view .LVU371
 1345 0106 3200     		movs	r2, r6
 296:Core/Src/main.c **** 
 1346              		.loc 1 296 25 view .LVU372
ARM GAS  C:\Users\maari\AppData\Local\Temp\ccZYJnBB.s 			page 40


 1347 0108 9C46     		mov	ip, r3
 296:Core/Src/main.c **** 
 1348              		.loc 1 296 36 view .LVU373
 1349 010a 3F1A     		subs	r7, r7, r0
 1350              	.LVL82:
 299:Core/Src/main.c ****                 xi = temp;           // following mandelbrot.py
 1351              		.loc 1 299 45 view .LVU374
 1352 010c 5B46     		mov	r3, fp
 1353 010e 4046     		mov	r0, r8
 1354              	.LVL83:
 299:Core/Src/main.c ****                 xi = temp;           // following mandelbrot.py
 1355              		.loc 1 299 45 view .LVU375
 1356 0110 4946     		mov	r1, r9
 296:Core/Src/main.c **** 
 1357              		.loc 1 296 25 view .LVU376
 1358 0112 6744     		add	r7, r7, ip
 1359              	.LVL84:
 299:Core/Src/main.c ****                 xi = temp;           // following mandelbrot.py
 1360              		.loc 1 299 17 is_stmt 1 view .LVU377
 299:Core/Src/main.c ****                 xi = temp;           // following mandelbrot.py
 1361              		.loc 1 299 45 is_stmt 0 view .LVU378
 1362 0114 FFF7FEFF 		bl	__aeabi_lmul
 1363              	.LVL85:
 299:Core/Src/main.c ****                 xi = temp;           // following mandelbrot.py
 1364              		.loc 1 299 50 view .LVU379
 1365 0118 8022     		movs	r2, #128
 1366 011a 0023     		movs	r3, #0
 1367 011c D201     		lsls	r2, r2, #7
 1368 011e 8018     		adds	r0, r0, r2
 1369 0120 5941     		adcs	r1, r1, r3
 299:Core/Src/main.c ****                 xi = temp;           // following mandelbrot.py
 1370              		.loc 1 299 68 view .LVU380
 1371 0122 4B04     		lsls	r3, r1, #17
 1372 0124 C60B     		lsrs	r6, r0, #15
 1373 0126 1E43     		orrs	r6, r3
 299:Core/Src/main.c ****                 xi = temp;           // following mandelbrot.py
 1374              		.loc 1 299 20 view .LVU381
 1375 0128 049B     		ldr	r3, [sp, #16]
 1376 012a 9C46     		mov	ip, r3
 302:Core/Src/main.c ****             }
 1377              		.loc 1 302 17 view .LVU382
 1378 012c 0123     		movs	r3, #1
 299:Core/Src/main.c ****                 xi = temp;           // following mandelbrot.py
 1379              		.loc 1 299 20 view .LVU383
 1380 012e 6644     		add	r6, r6, ip
 1381              	.LVL86:
 300:Core/Src/main.c **** 
 1382              		.loc 1 300 17 is_stmt 1 view .LVU384
 302:Core/Src/main.c ****             }
 1383              		.loc 1 302 17 view .LVU385
 1384 0130 9C46     		mov	ip, r3
 1385              	.LBE153:
 289:Core/Src/main.c ****                 int32_t xi2 = (int32_t)(((int64_t)xi * xi + (1 << (Q - 1))) >> Q);
 1386              		.loc 1 289 30 is_stmt 0 view .LVU386
 1387 0132 039B     		ldr	r3, [sp, #12]
 1388              	.LBB154:
 302:Core/Src/main.c ****             }
ARM GAS  C:\Users\maari\AppData\Local\Temp\ccZYJnBB.s 			page 41


 1389              		.loc 1 302 17 view .LVU387
 1390 0134 E244     		add	r10, r10, ip
 1391              	.LVL87:
 302:Core/Src/main.c ****             }
 1392              		.loc 1 302 17 view .LVU388
 1393              	.LBE154:
 289:Core/Src/main.c ****                 int32_t xi2 = (int32_t)(((int64_t)xi * xi + (1 << (Q - 1))) >> Q);
 1394              		.loc 1 289 30 is_stmt 1 view .LVU389
 1395 0136 5345     		cmp	r3, r10
 1396 0138 B9D1     		bne	.L33
 305:Core/Src/main.c ****             x0 += x_step; // add step instead of multiplying new x value
 1397              		.loc 1 305 28 is_stmt 0 view .LVU390
 1398 013a 0893     		str	r3, [sp, #32]
 1399 013c 0E9B     		ldr	r3, [sp, #56]
 1400 013e 0993     		str	r3, [sp, #36]
 1401 0140 0898     		ldr	r0, [sp, #32]
 1402 0142 0999     		ldr	r1, [sp, #36]
 1403 0144 069A     		ldr	r2, [sp, #24]
 1404 0146 079B     		ldr	r3, [sp, #28]
 1405              	.LVL88:
 1406              	.L52:
 305:Core/Src/main.c ****             x0 += x_step; // add step instead of multiplying new x value
 1407              		.loc 1 305 28 view .LVU391
 1408 0148 1218     		adds	r2, r2, r0
 1409 014a 4B41     		adcs	r3, r3, r1
 1410 014c 0692     		str	r2, [sp, #24]
 1411 014e 0793     		str	r3, [sp, #28]
 305:Core/Src/main.c ****             x0 += x_step; // add step instead of multiplying new x value
 1412              		.loc 1 305 13 is_stmt 1 view .LVU392
 1413              	.LVL89:
 306:Core/Src/main.c ****         }
 1414              		.loc 1 306 13 view .LVU393
 306:Core/Src/main.c ****         }
 1415              		.loc 1 306 16 is_stmt 0 view .LVU394
 1416 0150 0D9A     		ldr	r2, [sp, #52]
 1417 0152 029B     		ldr	r3, [sp, #8]
 1418 0154 9446     		mov	ip, r2
 1419 0156 6344     		add	r3, r3, ip
 1420 0158 0293     		str	r3, [sp, #8]
 1421              	.LVL90:
 306:Core/Src/main.c ****         }
 1422              		.loc 1 306 16 view .LVU395
 1423              	.LBE157:
 285:Core/Src/main.c ****             int32_t xi = 0, yi = 0;
 1424              		.loc 1 285 36 is_stmt 1 discriminator 2 view .LVU396
 1425 015a 059B     		ldr	r3, [sp, #20]
 1426              	.LVL91:
 285:Core/Src/main.c ****             int32_t xi = 0, yi = 0;
 1427              		.loc 1 285 27 is_stmt 0 discriminator 1 view .LVU397
 1428 015c 0C9A     		ldr	r2, [sp, #48]
 285:Core/Src/main.c ****             int32_t xi = 0, yi = 0;
 1429              		.loc 1 285 36 discriminator 2 view .LVU398
 1430 015e 0133     		adds	r3, r3, #1
 1431 0160 0593     		str	r3, [sp, #20]
 1432              	.LVL92:
 285:Core/Src/main.c ****             int32_t xi = 0, yi = 0;
 1433              		.loc 1 285 27 is_stmt 1 discriminator 1 view .LVU399
ARM GAS  C:\Users\maari\AppData\Local\Temp\ccZYJnBB.s 			page 42


 1434 0162 9342     		cmp	r3, r2
 1435 0164 9AD1     		bne	.L34
 1436              	.LVL93:
 1437              	.L49:
 285:Core/Src/main.c ****             int32_t xi = 0, yi = 0;
 1438              		.loc 1 285 27 is_stmt 0 discriminator 1 view .LVU400
 1439              	.LBE161:
 308:Core/Src/main.c ****     }
 1440              		.loc 1 308 9 is_stmt 1 view .LVU401
 308:Core/Src/main.c ****     }
 1441              		.loc 1 308 12 is_stmt 0 view .LVU402
 1442 0166 109A     		ldr	r2, [sp, #64]
 1443 0168 049B     		ldr	r3, [sp, #16]
 1444              	.LVL94:
 308:Core/Src/main.c ****     }
 1445              		.loc 1 308 12 view .LVU403
 1446 016a 9446     		mov	ip, r2
 1447 016c 6344     		add	r3, r3, ip
 1448 016e 0493     		str	r3, [sp, #16]
 1449              	.LVL95:
 308:Core/Src/main.c ****     }
 1450              		.loc 1 308 12 view .LVU404
 1451              	.LBE165:
 282:Core/Src/main.c ****         int32_t x0 = x_left;			// starting constant
 1452              		.loc 1 282 33 is_stmt 1 discriminator 2 view .LVU405
 1453 0170 0F9B     		ldr	r3, [sp, #60]
 1454              	.LVL96:
 282:Core/Src/main.c ****         int32_t x0 = x_left;			// starting constant
 1455              		.loc 1 282 23 is_stmt 0 discriminator 1 view .LVU406
 1456 0172 119A     		ldr	r2, [sp, #68]
 282:Core/Src/main.c ****         int32_t x0 = x_left;			// starting constant
 1457              		.loc 1 282 33 discriminator 2 view .LVU407
 1458 0174 0133     		adds	r3, r3, #1
 1459 0176 0F93     		str	r3, [sp, #60]
 1460              	.LVL97:
 282:Core/Src/main.c ****         int32_t x0 = x_left;			// starting constant
 1461              		.loc 1 282 23 is_stmt 1 discriminator 1 view .LVU408
 1462 0178 9A42     		cmp	r2, r3
 1463 017a 85D1     		bne	.L37
 1464 017c 68E7     		b	.L26
 1465              	.LVL98:
 1466              	.L54:
 1467              	.LBB166:
 1468              	.LBB162:
 1469              	.LBB158:
 1470              	.LBB155:
 294:Core/Src/main.c **** 
 1471              		.loc 1 294 20 is_stmt 0 view .LVU409
 1472 017e 8021     		movs	r1, #128
 1473 0180 C902     		lsls	r1, r1, #11
 1474 0182 8A42     		cmp	r2, r1
 1475 0184 BED9     		bls	.L48
 1476              	.L43:
 294:Core/Src/main.c **** 
 1477              		.loc 1 294 20 view .LVU410
 1478              	.LBE155:
 305:Core/Src/main.c ****             x0 += x_step; // add step instead of multiplying new x value
ARM GAS  C:\Users\maari\AppData\Local\Temp\ccZYJnBB.s 			page 43


 1479              		.loc 1 305 28 view .LVU411
 1480 0186 5346     		mov	r3, r10
 1481 0188 0A93     		str	r3, [sp, #40]
 1482 018a DB17     		asrs	r3, r3, #31
 1483 018c 0B93     		str	r3, [sp, #44]
 1484 018e 0A98     		ldr	r0, [sp, #40]
 1485 0190 0B99     		ldr	r1, [sp, #44]
 1486              	.LVL99:
 305:Core/Src/main.c ****             x0 += x_step; // add step instead of multiplying new x value
 1487              		.loc 1 305 28 view .LVU412
 1488 0192 069A     		ldr	r2, [sp, #24]
 1489 0194 079B     		ldr	r3, [sp, #28]
 1490 0196 D7E7     		b	.L52
 1491              	.LVL100:
 1492              	.L36:
 305:Core/Src/main.c ****             x0 += x_step; // add step instead of multiplying new x value
 1493              		.loc 1 305 13 is_stmt 1 view .LVU413
 306:Core/Src/main.c ****         }
 1494              		.loc 1 306 13 view .LVU414
 306:Core/Src/main.c ****         }
 1495              		.loc 1 306 16 is_stmt 0 view .LVU415
 1496 0198 0D9A     		ldr	r2, [sp, #52]
 1497 019a 029B     		ldr	r3, [sp, #8]
 1498 019c 9446     		mov	ip, r2
 1499 019e 6344     		add	r3, r3, ip
 1500 01a0 0293     		str	r3, [sp, #8]
 1501              	.LVL101:
 306:Core/Src/main.c ****         }
 1502              		.loc 1 306 16 view .LVU416
 1503              	.LBE158:
 285:Core/Src/main.c ****             int32_t xi = 0, yi = 0;
 1504              		.loc 1 285 36 is_stmt 1 discriminator 2 view .LVU417
 1505 01a2 059B     		ldr	r3, [sp, #20]
 1506              	.LVL102:
 285:Core/Src/main.c ****             int32_t xi = 0, yi = 0;
 1507              		.loc 1 285 27 is_stmt 0 discriminator 1 view .LVU418
 1508 01a4 0C9A     		ldr	r2, [sp, #48]
 285:Core/Src/main.c ****             int32_t xi = 0, yi = 0;
 1509              		.loc 1 285 36 discriminator 2 view .LVU419
 1510 01a6 0133     		adds	r3, r3, #1
 1511 01a8 0593     		str	r3, [sp, #20]
 1512              	.LVL103:
 285:Core/Src/main.c ****             int32_t xi = 0, yi = 0;
 1513              		.loc 1 285 27 is_stmt 1 discriminator 1 view .LVU420
 1514 01aa 9A42     		cmp	r2, r3
 1515 01ac 00D0     		beq	.LCB1414
 1516 01ae 6FE7     		b	.L40	@long jump
 1517              	.LCB1414:
 1518 01b0 D9E7     		b	.L49
 1519              	.L56:
 1520 01b2 C046     		.align	2
 1521              	.L55:
 1522 01b4 0000FFFF 		.word	-65536
 1523 01b8 0080FDFF 		.word	-163840
 1524              	.LBE162:
 1525              	.LBE166:
 1526              	.LBE170:
ARM GAS  C:\Users\maari\AppData\Local\Temp\ccZYJnBB.s 			page 44


 1527              		.cfi_endproc
 1528              	.LFE46:
 1530              		.global	__aeabi_i2d
 1531              		.global	__aeabi_ddiv
 1532              		.global	__aeabi_dadd
 1533              		.global	__aeabi_dsub
 1534              		.global	__aeabi_dmul
 1535              		.global	__aeabi_dcmpgt
 1536              		.section	.text.calculate_mandelbrot_double,"ax",%progbits
 1537              		.align	1
 1538              		.p2align 2,,3
 1539              		.global	calculate_mandelbrot_double
 1540              		.syntax unified
 1541              		.code	16
 1542              		.thumb_func
 1544              	calculate_mandelbrot_double:
 1545              	.LVL104:
 1546              	.LFB47:
 317:Core/Src/main.c ****     uint64_t mandelbrot_sum = 0;
 1547              		.loc 1 317 1 view -0
 1548              		.cfi_startproc
 1549              		@ args = 0, pretend = 0, frame = 80
 1550              		@ frame_needed = 0, uses_anonymous_args = 0
 318:Core/Src/main.c ****     //TODO: Complete the function implementation
 1551              		.loc 1 318 5 view .LVU422
 320:Core/Src/main.c ****     for (int y = 0; y < height; y++)
 1552              		.loc 1 320 5 view .LVU423
 317:Core/Src/main.c ****     uint64_t mandelbrot_sum = 0;
 1553              		.loc 1 317 1 is_stmt 0 view .LVU424
 1554 0000 F0B5     		push	{r4, r5, r6, r7, lr}
 1555              	.LCFI8:
 1556              		.cfi_def_cfa_offset 20
 1557              		.cfi_offset 4, -20
 1558              		.cfi_offset 5, -16
 1559              		.cfi_offset 6, -12
 1560              		.cfi_offset 7, -8
 1561              		.cfi_offset 14, -4
 1562 0002 DE46     		mov	lr, fp
 1563 0004 5746     		mov	r7, r10
 1564 0006 4E46     		mov	r6, r9
 1565 0008 4546     		mov	r5, r8
 1566 000a 9146     		mov	r9, r2
 320:Core/Src/main.c ****     for (int y = 0; y < height; y++)
 1567              		.loc 1 320 14 view .LVU425
 1568 000c 0023     		movs	r3, #0
 1569 000e 0022     		movs	r2, #0
 1570              	.LVL105:
 317:Core/Src/main.c ****     uint64_t mandelbrot_sum = 0;
 1571              		.loc 1 317 1 view .LVU426
 1572 0010 E0B5     		push	{r5, r6, r7, lr}
 1573              	.LCFI9:
 1574              		.cfi_def_cfa_offset 36
 1575              		.cfi_offset 8, -36
 1576              		.cfi_offset 9, -32
 1577              		.cfi_offset 10, -28
 1578              		.cfi_offset 11, -24
 1579 0012 0F00     		movs	r7, r1
ARM GAS  C:\Users\maari\AppData\Local\Temp\ccZYJnBB.s 			page 45


 320:Core/Src/main.c ****     for (int y = 0; y < height; y++)
 1580              		.loc 1 320 14 view .LVU427
 1581 0014 7249     		ldr	r1, .L83
 1582              	.LVL106:
 317:Core/Src/main.c ****     uint64_t mandelbrot_sum = 0;
 1583              		.loc 1 317 1 view .LVU428
 1584 0016 95B0     		sub	sp, sp, #84
 1585              	.LCFI10:
 1586              		.cfi_def_cfa_offset 120
 317:Core/Src/main.c ****     uint64_t mandelbrot_sum = 0;
 1587              		.loc 1 317 1 view .LVU429
 1588 0018 8346     		mov	fp, r0
 320:Core/Src/main.c ****     for (int y = 0; y < height; y++)
 1589              		.loc 1 320 14 view .LVU430
 1590 001a 0A60     		str	r2, [r1]
 1591 001c 4B60     		str	r3, [r1, #4]
 321:Core/Src/main.c ****     {
 1592              		.loc 1 321 5 is_stmt 1 view .LVU431
 1593              	.LBB171:
 321:Core/Src/main.c ****     {
 1594              		.loc 1 321 10 view .LVU432
 1595              	.LVL107:
 321:Core/Src/main.c ****     {
 1596              		.loc 1 321 23 discriminator 1 view .LVU433
 1597 001e 002F     		cmp	r7, #0
 1598 0020 00DC     		bgt	.LCB1476
 1599 0022 D7E0     		b	.L80	@long jump
 1600              	.LCB1476:
 1601              	.LVL108:
 1602              	.LBB172:
 323:Core/Src/main.c ****     	{
 1603              		.loc 1 323 24 discriminator 1 view .LVU434
 1604 0024 0023     		movs	r3, #0
 1605 0026 0024     		movs	r4, #0
 1606 0028 0A93     		str	r3, [sp, #40]
 1607 002a 0B94     		str	r4, [sp, #44]
 1608              	.LBB173:
 352:Core/Src/main.c **** 
 1609              		.loc 1 352 39 is_stmt 0 view .LVU435
 1610 002c 4B46     		mov	r3, r9
 1611 002e DB17     		asrs	r3, r3, #31
 1612              	.LBE173:
 323:Core/Src/main.c ****     	{
 1613              		.loc 1 323 24 discriminator 1 view .LVU436
 1614 0030 0026     		movs	r6, #0
 1615              	.LBB177:
 352:Core/Src/main.c **** 
 1616              		.loc 1 352 39 view .LVU437
 1617 0032 1293     		str	r3, [sp, #72]
 1618              	.LBE177:
 323:Core/Src/main.c ****     	{
 1619              		.loc 1 323 24 discriminator 1 view .LVU438
 1620 0034 0028     		cmp	r0, #0
 1621 0036 10DD     		ble	.L57
 1622 0038 4B46     		mov	r3, r9
 1623 003a 1396     		str	r6, [sp, #76]
 1624 003c 0793     		str	r3, [sp, #28]
ARM GAS  C:\Users\maari\AppData\Local\Temp\ccZYJnBB.s 			page 46


 1625              	.LVL109:
 1626              	.L68:
 323:Core/Src/main.c ****     	{
 1627              		.loc 1 323 15 view .LVU439
 1628 003e 0023     		movs	r3, #0
 1629 0040 5A46     		mov	r2, fp
 1630              	.LVL110:
 1631              	.L67:
 1632              	.LBB178:
 325:Core/Src/main.c ****     		double y_0 = (double)y/height * 2.0 - 1.0;
 1633              		.loc 1 325 7 is_stmt 1 view .LVU440
 326:Core/Src/main.c **** 
 1634              		.loc 1 326 7 view .LVU441
 328:Core/Src/main.c ****     		double y_i = 0;
 1635              		.loc 1 328 7 view .LVU442
 329:Core/Src/main.c ****     		int iteration = 0;
 1636              		.loc 1 329 7 view .LVU443
 330:Core/Src/main.c **** 
 1637              		.loc 1 330 7 view .LVU444
 333:Core/Src/main.c ****     		{
 1638              		.loc 1 333 7 view .LVU445
 333:Core/Src/main.c ****     		{
 1639              		.loc 1 333 24 view .LVU446
 1640 0042 0799     		ldr	r1, [sp, #28]
 1641 0044 0029     		cmp	r1, #0
 1642 0046 11DC     		bgt	.L81
 352:Core/Src/main.c **** 
 1643              		.loc 1 352 7 view .LVU447
 1644              	.LVL111:
 352:Core/Src/main.c **** 
 1645              		.loc 1 352 7 is_stmt 0 view .LVU448
 1646              	.LBE178:
 323:Core/Src/main.c ****     	{
 1647              		.loc 1 323 35 is_stmt 1 discriminator 2 view .LVU449
 1648 0048 0133     		adds	r3, r3, #1
 1649              	.LVL112:
 323:Core/Src/main.c ****     	{
 1650              		.loc 1 323 24 discriminator 1 view .LVU450
 1651 004a 9A42     		cmp	r2, r3
 1652 004c F9D1     		bne	.L67
 1653              	.LBE172:
 321:Core/Src/main.c ****     {
 1654              		.loc 1 321 34 is_stmt 0 discriminator 2 view .LVU451
 1655 004e 139B     		ldr	r3, [sp, #76]
 1656              	.LVL113:
 321:Core/Src/main.c ****     {
 1657              		.loc 1 321 34 discriminator 2 view .LVU452
 1658 0050 9346     		mov	fp, r2
 321:Core/Src/main.c ****     {
 1659              		.loc 1 321 34 is_stmt 1 discriminator 2 view .LVU453
 1660 0052 0133     		adds	r3, r3, #1
 1661 0054 1393     		str	r3, [sp, #76]
 1662              	.LVL114:
 321:Core/Src/main.c ****     {
 1663              		.loc 1 321 23 discriminator 1 view .LVU454
 1664 0056 9F42     		cmp	r7, r3
 1665 0058 F1D1     		bne	.L68
ARM GAS  C:\Users\maari\AppData\Local\Temp\ccZYJnBB.s 			page 47


 1666              	.LVL115:
 1667              	.L57:
 321:Core/Src/main.c ****     {
 1668              		.loc 1 321 23 is_stmt 0 discriminator 1 view .LVU455
 1669              	.LBE171:
 358:Core/Src/main.c **** 
 1670              		.loc 1 358 1 view .LVU456
 1671 005a 0A98     		ldr	r0, [sp, #40]
 1672 005c 0B99     		ldr	r1, [sp, #44]
 1673 005e 15B0     		add	sp, sp, #84
 1674              		@ sp needed
 1675              	.LVL116:
 1676              	.LVL117:
 358:Core/Src/main.c **** 
 1677              		.loc 1 358 1 view .LVU457
 1678 0060 F0BC     		pop	{r4, r5, r6, r7}
 1679 0062 BB46     		mov	fp, r7
 1680 0064 B246     		mov	r10, r6
 1681 0066 A946     		mov	r9, r5
 1682 0068 A046     		mov	r8, r4
 1683 006a F0BD     		pop	{r4, r5, r6, r7, pc}
 1684              	.LVL118:
 1685              	.L81:
 1686              	.LBB183:
 1687              	.LBB182:
 1688              	.LBB179:
 326:Core/Src/main.c **** 
 1689              		.loc 1 326 20 view .LVU458
 1690 006c 1398     		ldr	r0, [sp, #76]
 1691 006e 9A46     		mov	r10, r3
 1692 0070 9346     		mov	fp, r2
 1693 0072 FFF7FEFF 		bl	__aeabi_i2d
 1694              	.LVL119:
 326:Core/Src/main.c **** 
 1695              		.loc 1 326 20 view .LVU459
 1696 0076 0400     		movs	r4, r0
 326:Core/Src/main.c **** 
 1697              		.loc 1 326 29 view .LVU460
 1698 0078 3800     		movs	r0, r7
 326:Core/Src/main.c **** 
 1699              		.loc 1 326 20 view .LVU461
 1700 007a 0D00     		movs	r5, r1
 326:Core/Src/main.c **** 
 1701              		.loc 1 326 29 view .LVU462
 1702 007c FFF7FEFF 		bl	__aeabi_i2d
 1703              	.LVL120:
 1704 0080 0200     		movs	r2, r0
 1705 0082 0B00     		movs	r3, r1
 1706 0084 2000     		movs	r0, r4
 1707 0086 2900     		movs	r1, r5
 1708 0088 FFF7FEFF 		bl	__aeabi_ddiv
 1709              	.LVL121:
 326:Core/Src/main.c **** 
 1710              		.loc 1 326 37 view .LVU463
 1711 008c 0200     		movs	r2, r0
 1712 008e 0B00     		movs	r3, r1
 1713 0090 FFF7FEFF 		bl	__aeabi_dadd
ARM GAS  C:\Users\maari\AppData\Local\Temp\ccZYJnBB.s 			page 48


 1714              	.LVL122:
 326:Core/Src/main.c **** 
 1715              		.loc 1 326 14 view .LVU464
 1716 0094 0022     		movs	r2, #0
 1717 0096 534B     		ldr	r3, .L83+4
 1718 0098 FFF7FEFF 		bl	__aeabi_dsub
 1719              	.LVL123:
 1720 009c 0890     		str	r0, [sp, #32]
 1721 009e 0991     		str	r1, [sp, #36]
 325:Core/Src/main.c ****     		double y_0 = (double)y/height * 2.0 - 1.0;
 1722              		.loc 1 325 30 view .LVU465
 1723 00a0 5846     		mov	r0, fp
 1724 00a2 FFF7FEFF 		bl	__aeabi_i2d
 1725              	.LVL124:
 1726 00a6 0400     		movs	r4, r0
 1727 00a8 0D00     		movs	r5, r1
 325:Core/Src/main.c ****     		double y_0 = (double)y/height * 2.0 - 1.0;
 1728              		.loc 1 325 21 view .LVU466
 1729 00aa 5046     		mov	r0, r10
 325:Core/Src/main.c ****     		double y_0 = (double)y/height * 2.0 - 1.0;
 1730              		.loc 1 325 30 view .LVU467
 1731 00ac 1094     		str	r4, [sp, #64]
 1732 00ae 1195     		str	r5, [sp, #68]
 325:Core/Src/main.c ****     		double y_0 = (double)y/height * 2.0 - 1.0;
 1733              		.loc 1 325 21 view .LVU468
 1734 00b0 FFF7FEFF 		bl	__aeabi_i2d
 1735              	.LVL125:
 325:Core/Src/main.c ****     		double y_0 = (double)y/height * 2.0 - 1.0;
 1736              		.loc 1 325 30 view .LVU469
 1737 00b4 2200     		movs	r2, r4
 1738 00b6 2B00     		movs	r3, r5
 1739 00b8 FFF7FEFF 		bl	__aeabi_ddiv
 1740              	.LVL126:
 325:Core/Src/main.c ****     		double y_0 = (double)y/height * 2.0 - 1.0;
 1741              		.loc 1 325 37 view .LVU470
 1742 00bc 0022     		movs	r2, #0
 1743 00be 4A4B     		ldr	r3, .L83+8
 1744 00c0 FFF7FEFF 		bl	__aeabi_dmul
 1745              	.LVL127:
 325:Core/Src/main.c ****     		double y_0 = (double)y/height * 2.0 - 1.0;
 1746              		.loc 1 325 14 view .LVU471
 1747 00c4 0022     		movs	r2, #0
 1748 00c6 494B     		ldr	r3, .L83+12
 1749 00c8 FFF7FEFF 		bl	__aeabi_dsub
 1750              	.LVL128:
 1751 00cc D946     		mov	r9, fp
 1752 00ce D346     		mov	fp, r10
 1753              	.LVL129:
 325:Core/Src/main.c ****     		double y_0 = (double)y/height * 2.0 - 1.0;
 1754              		.loc 1 325 14 view .LVU472
 1755 00d0 BA46     		mov	r10, r7
 1756              	.LVL130:
 325:Core/Src/main.c ****     		double y_0 = (double)y/height * 2.0 - 1.0;
 1757              		.loc 1 325 14 view .LVU473
 1758 00d2 0490     		str	r0, [sp, #16]
 1759 00d4 0591     		str	r1, [sp, #20]
 1760              	.LVL131:
ARM GAS  C:\Users\maari\AppData\Local\Temp\ccZYJnBB.s 			page 49


 1761              	.L61:
 330:Core/Src/main.c **** 
 1762              		.loc 1 330 11 view .LVU474
 1763 00d6 0023     		movs	r3, #0
 329:Core/Src/main.c ****     		int iteration = 0;
 1764              		.loc 1 329 14 view .LVU475
 1765 00d8 0026     		movs	r6, #0
 1766 00da 0027     		movs	r7, #0
 328:Core/Src/main.c ****     		double y_i = 0;
 1767              		.loc 1 328 14 view .LVU476
 1768 00dc 3400     		movs	r4, r6
 1769 00de 3D00     		movs	r5, r7
 1770 00e0 9846     		mov	r8, r3
 1771 00e2 21E0     		b	.L66
 1772              	.LVL132:
 1773              	.L75:
 1774              	.LBB174:
 343:Core/Src/main.c ****     			y_i = 2.0*x_i*y_i + y_0;
 1775              		.loc 1 343 8 is_stmt 1 view .LVU477
 344:Core/Src/main.c **** 
 1776              		.loc 1 344 8 view .LVU478
 344:Core/Src/main.c **** 
 1777              		.loc 1 344 17 is_stmt 0 view .LVU479
 1778 00e4 2200     		movs	r2, r4
 1779 00e6 2B00     		movs	r3, r5
 1780 00e8 2000     		movs	r0, r4
 1781 00ea 2900     		movs	r1, r5
 1782 00ec FFF7FEFF 		bl	__aeabi_dadd
 1783              	.LVL133:
 344:Core/Src/main.c **** 
 1784              		.loc 1 344 21 view .LVU480
 1785 00f0 3200     		movs	r2, r6
 1786 00f2 3B00     		movs	r3, r7
 1787 00f4 FFF7FEFF 		bl	__aeabi_dmul
 1788              	.LVL134:
 344:Core/Src/main.c **** 
 1789              		.loc 1 344 12 view .LVU481
 1790 00f8 089A     		ldr	r2, [sp, #32]
 1791 00fa 099B     		ldr	r3, [sp, #36]
 1792 00fc FFF7FEFF 		bl	__aeabi_dadd
 1793              	.LVL135:
 343:Core/Src/main.c ****     			y_i = 2.0*x_i*y_i + y_0;
 1794              		.loc 1 343 15 view .LVU482
 1795 0100 029A     		ldr	r2, [sp, #8]
 1796 0102 039B     		ldr	r3, [sp, #12]
 344:Core/Src/main.c **** 
 1797              		.loc 1 344 12 view .LVU483
 1798 0104 0600     		movs	r6, r0
 1799              	.LVL136:
 344:Core/Src/main.c **** 
 1800              		.loc 1 344 12 view .LVU484
 1801 0106 0F00     		movs	r7, r1
 1802              	.LVL137:
 346:Core/Src/main.c **** 
 1803              		.loc 1 346 8 is_stmt 1 view .LVU485
 343:Core/Src/main.c ****     			y_i = 2.0*x_i*y_i + y_0;
 1804              		.loc 1 343 15 is_stmt 0 view .LVU486
ARM GAS  C:\Users\maari\AppData\Local\Temp\ccZYJnBB.s 			page 50


 1805 0108 0098     		ldr	r0, [sp]
 1806 010a 0199     		ldr	r1, [sp, #4]
 1807 010c FFF7FEFF 		bl	__aeabi_dsub
 1808              	.LVL138:
 346:Core/Src/main.c **** 
 1809              		.loc 1 346 12 view .LVU487
 1810 0110 049A     		ldr	r2, [sp, #16]
 1811 0112 059B     		ldr	r3, [sp, #20]
 1812 0114 FFF7FEFF 		bl	__aeabi_dadd
 1813              	.LVL139:
 348:Core/Src/main.c **** 
 1814              		.loc 1 348 18 view .LVU488
 1815 0118 0123     		movs	r3, #1
 1816 011a 9C46     		mov	ip, r3
 1817              	.LBE174:
 333:Core/Src/main.c ****     		{
 1818              		.loc 1 333 24 view .LVU489
 1819 011c 079B     		ldr	r3, [sp, #28]
 1820              	.LBB175:
 348:Core/Src/main.c **** 
 1821              		.loc 1 348 18 view .LVU490
 1822 011e E044     		add	r8, r8, ip
 1823              	.LVL140:
 346:Core/Src/main.c **** 
 1824              		.loc 1 346 12 view .LVU491
 1825 0120 0400     		movs	r4, r0
 1826              	.LVL141:
 346:Core/Src/main.c **** 
 1827              		.loc 1 346 12 view .LVU492
 1828 0122 0D00     		movs	r5, r1
 1829              	.LVL142:
 348:Core/Src/main.c **** 
 1830              		.loc 1 348 8 is_stmt 1 view .LVU493
 348:Core/Src/main.c **** 
 1831              		.loc 1 348 8 is_stmt 0 view .LVU494
 1832              	.LBE175:
 333:Core/Src/main.c ****     		{
 1833              		.loc 1 333 24 is_stmt 1 view .LVU495
 1834 0124 4345     		cmp	r3, r8
 1835 0126 3ED0     		beq	.L82
 1836              	.LVL143:
 1837              	.L66:
 1838              	.LBB176:
 336:Core/Src/main.c ****     			double y_i_sq = y_i*y_i;
 1839              		.loc 1 336 8 view .LVU496
 336:Core/Src/main.c ****     			double y_i_sq = y_i*y_i;
 1840              		.loc 1 336 15 is_stmt 0 view .LVU497
 1841 0128 2200     		movs	r2, r4
 1842 012a 2B00     		movs	r3, r5
 1843 012c 2000     		movs	r0, r4
 1844 012e 2900     		movs	r1, r5
 1845 0130 FFF7FEFF 		bl	__aeabi_dmul
 1846              	.LVL144:
 337:Core/Src/main.c **** 
 1847              		.loc 1 337 8 is_stmt 1 view .LVU498
 337:Core/Src/main.c **** 
 1848              		.loc 1 337 15 is_stmt 0 view .LVU499
ARM GAS  C:\Users\maari\AppData\Local\Temp\ccZYJnBB.s 			page 51


 1849 0134 3200     		movs	r2, r6
 336:Core/Src/main.c ****     			double y_i_sq = y_i*y_i;
 1850              		.loc 1 336 15 view .LVU500
 1851 0136 0090     		str	r0, [sp]
 1852 0138 0191     		str	r1, [sp, #4]
 1853              	.LVL145:
 337:Core/Src/main.c **** 
 1854              		.loc 1 337 15 view .LVU501
 1855 013a 3B00     		movs	r3, r7
 1856 013c 3000     		movs	r0, r6
 1857 013e 3900     		movs	r1, r7
 1858 0140 FFF7FEFF 		bl	__aeabi_dmul
 1859              	.LVL146:
 1860 0144 0200     		movs	r2, r0
 1861 0146 0B00     		movs	r3, r1
 339:Core/Src/main.c ****     			{
 1862              		.loc 1 339 18 view .LVU502
 1863 0148 0098     		ldr	r0, [sp]
 1864 014a 0199     		ldr	r1, [sp, #4]
 337:Core/Src/main.c **** 
 1865              		.loc 1 337 15 view .LVU503
 1866 014c 0292     		str	r2, [sp, #8]
 1867 014e 0393     		str	r3, [sp, #12]
 1868              	.LVL147:
 339:Core/Src/main.c ****     			{
 1869              		.loc 1 339 8 is_stmt 1 view .LVU504
 339:Core/Src/main.c ****     			{
 1870              		.loc 1 339 18 is_stmt 0 view .LVU505
 1871 0150 FFF7FEFF 		bl	__aeabi_dadd
 1872              	.LVL148:
 339:Core/Src/main.c ****     			{
 1873              		.loc 1 339 10 view .LVU506
 1874 0154 0022     		movs	r2, #0
 1875 0156 264B     		ldr	r3, .L83+16
 1876 0158 FFF7FEFF 		bl	__aeabi_dcmpgt
 1877              	.LVL149:
 1878 015c 0028     		cmp	r0, #0
 1879 015e C1D0     		beq	.L75
 1880              	.LBE176:
 352:Core/Src/main.c **** 
 1881              		.loc 1 352 39 view .LVU507
 1882 0160 4346     		mov	r3, r8
 1883 0162 0C93     		str	r3, [sp, #48]
 1884 0164 DB17     		asrs	r3, r3, #31
 1885 0166 0D93     		str	r3, [sp, #52]
 352:Core/Src/main.c **** 
 1886              		.loc 1 352 22 view .LVU508
 1887 0168 0C99     		ldr	r1, [sp, #48]
 1888 016a 0D9A     		ldr	r2, [sp, #52]
 1889 016c 0A9B     		ldr	r3, [sp, #40]
 1890 016e 0B9C     		ldr	r4, [sp, #44]
 1891 0170 5B18     		adds	r3, r3, r1
 1892 0172 5441     		adcs	r4, r4, r2
 1893 0174 0A93     		str	r3, [sp, #40]
 1894 0176 0B94     		str	r4, [sp, #44]
 1895              	.LVL150:
 352:Core/Src/main.c **** 
ARM GAS  C:\Users\maari\AppData\Local\Temp\ccZYJnBB.s 			page 52


 1896              		.loc 1 352 7 is_stmt 1 view .LVU509
 352:Core/Src/main.c **** 
 1897              		.loc 1 352 7 is_stmt 0 view .LVU510
 1898              	.LBE179:
 323:Core/Src/main.c ****     	{
 1899              		.loc 1 323 35 is_stmt 1 discriminator 2 view .LVU511
 1900 0178 0123     		movs	r3, #1
 1901 017a 9C46     		mov	ip, r3
 1902 017c E344     		add	fp, fp, ip
 1903              	.LVL151:
 323:Core/Src/main.c ****     	{
 1904              		.loc 1 323 24 discriminator 1 view .LVU512
 1905 017e CB45     		cmp	fp, r9
 1906 0180 1FD0     		beq	.L77
 1907              	.LVL152:
 1908              	.L79:
 1909              	.LBB180:
 325:Core/Src/main.c ****     		double y_0 = (double)y/height * 2.0 - 1.0;
 1910              		.loc 1 325 7 view .LVU513
 325:Core/Src/main.c ****     		double y_0 = (double)y/height * 2.0 - 1.0;
 1911              		.loc 1 325 21 is_stmt 0 view .LVU514
 1912 0182 5846     		mov	r0, fp
 1913 0184 FFF7FEFF 		bl	__aeabi_i2d
 1914              	.LVL153:
 325:Core/Src/main.c ****     		double y_0 = (double)y/height * 2.0 - 1.0;
 1915              		.loc 1 325 30 view .LVU515
 1916 0188 109A     		ldr	r2, [sp, #64]
 1917 018a 119B     		ldr	r3, [sp, #68]
 1918 018c FFF7FEFF 		bl	__aeabi_ddiv
 1919              	.LVL154:
 325:Core/Src/main.c ****     		double y_0 = (double)y/height * 2.0 - 1.0;
 1920              		.loc 1 325 37 view .LVU516
 1921 0190 0022     		movs	r2, #0
 1922 0192 154B     		ldr	r3, .L83+8
 1923 0194 FFF7FEFF 		bl	__aeabi_dmul
 1924              	.LVL155:
 325:Core/Src/main.c ****     		double y_0 = (double)y/height * 2.0 - 1.0;
 1925              		.loc 1 325 14 view .LVU517
 1926 0198 0022     		movs	r2, #0
 1927 019a 144B     		ldr	r3, .L83+12
 1928 019c FFF7FEFF 		bl	__aeabi_dsub
 1929              	.LVL156:
 1930 01a0 0490     		str	r0, [sp, #16]
 1931 01a2 0591     		str	r1, [sp, #20]
 1932              	.LVL157:
 326:Core/Src/main.c **** 
 1933              		.loc 1 326 7 is_stmt 1 view .LVU518
 328:Core/Src/main.c ****     		double y_i = 0;
 1934              		.loc 1 328 7 view .LVU519
 329:Core/Src/main.c ****     		int iteration = 0;
 1935              		.loc 1 329 7 view .LVU520
 330:Core/Src/main.c **** 
 1936              		.loc 1 330 7 view .LVU521
 333:Core/Src/main.c ****     		{
 1937              		.loc 1 333 7 view .LVU522
 333:Core/Src/main.c ****     		{
 1938              		.loc 1 333 24 view .LVU523
ARM GAS  C:\Users\maari\AppData\Local\Temp\ccZYJnBB.s 			page 53


 1939 01a4 97E7     		b	.L61
 1940              	.LVL158:
 1941              	.L82:
 352:Core/Src/main.c **** 
 1942              		.loc 1 352 39 is_stmt 0 view .LVU524
 1943 01a6 0E93     		str	r3, [sp, #56]
 1944 01a8 129B     		ldr	r3, [sp, #72]
 1945              	.LBE180:
 323:Core/Src/main.c ****     	{
 1946              		.loc 1 323 35 discriminator 2 view .LVU525
 1947 01aa E344     		add	fp, fp, ip
 1948              	.LVL159:
 1949              	.LBB181:
 352:Core/Src/main.c **** 
 1950              		.loc 1 352 39 view .LVU526
 1951 01ac 0F93     		str	r3, [sp, #60]
 352:Core/Src/main.c **** 
 1952              		.loc 1 352 22 view .LVU527
 1953 01ae 0E99     		ldr	r1, [sp, #56]
 1954 01b0 0F9A     		ldr	r2, [sp, #60]
 1955 01b2 0A9B     		ldr	r3, [sp, #40]
 1956 01b4 0B9C     		ldr	r4, [sp, #44]
 1957 01b6 5B18     		adds	r3, r3, r1
 1958 01b8 5441     		adcs	r4, r4, r2
 1959 01ba 0A93     		str	r3, [sp, #40]
 1960 01bc 0B94     		str	r4, [sp, #44]
 1961              	.LVL160:
 352:Core/Src/main.c **** 
 1962              		.loc 1 352 7 is_stmt 1 view .LVU528
 352:Core/Src/main.c **** 
 1963              		.loc 1 352 7 is_stmt 0 view .LVU529
 1964              	.LBE181:
 323:Core/Src/main.c ****     	{
 1965              		.loc 1 323 35 is_stmt 1 discriminator 2 view .LVU530
 323:Core/Src/main.c ****     	{
 1966              		.loc 1 323 24 discriminator 1 view .LVU531
 1967 01be CB45     		cmp	fp, r9
 1968 01c0 DFD1     		bne	.L79
 1969              	.LVL161:
 1970              	.L77:
 323:Core/Src/main.c ****     	{
 1971              		.loc 1 323 24 is_stmt 0 discriminator 1 view .LVU532
 1972 01c2 5746     		mov	r7, r10
 1973              	.LBE182:
 321:Core/Src/main.c ****     {
 1974              		.loc 1 321 34 is_stmt 1 discriminator 2 view .LVU533
 1975 01c4 139B     		ldr	r3, [sp, #76]
 1976 01c6 CB46     		mov	fp, r9
 1977              	.LVL162:
 321:Core/Src/main.c ****     {
 1978              		.loc 1 321 34 is_stmt 0 discriminator 2 view .LVU534
 1979 01c8 0133     		adds	r3, r3, #1
 1980 01ca 1393     		str	r3, [sp, #76]
 1981              	.LVL163:
 321:Core/Src/main.c ****     {
 1982              		.loc 1 321 23 is_stmt 1 discriminator 1 view .LVU535
 1983 01cc 9F42     		cmp	r7, r3
ARM GAS  C:\Users\maari\AppData\Local\Temp\ccZYJnBB.s 			page 54


 1984 01ce 00D0     		beq	.LCB1882
 1985 01d0 35E7     		b	.L68	@long jump
 1986              	.LCB1882:
 1987              	.LVL164:
 321:Core/Src/main.c ****     {
 1988              		.loc 1 321 23 is_stmt 0 discriminator 1 view .LVU536
 1989 01d2 42E7     		b	.L57
 1990              	.LVL165:
 1991              	.L80:
 321:Core/Src/main.c ****     {
 1992              		.loc 1 321 23 discriminator 1 view .LVU537
 1993 01d4 0023     		movs	r3, #0
 1994 01d6 0024     		movs	r4, #0
 1995 01d8 0A93     		str	r3, [sp, #40]
 1996 01da 0B94     		str	r4, [sp, #44]
 1997 01dc 3DE7     		b	.L57
 1998              	.L84:
 1999 01de C046     		.align	2
 2000              	.L83:
 2001 01e0 00000000 		.word	checksum
 2002 01e4 0000F03F 		.word	1072693248
 2003 01e8 00000C40 		.word	1074528256
 2004 01ec 00000440 		.word	1074003968
 2005 01f0 00001040 		.word	1074790400
 2006              	.LBE183:
 2007              		.cfi_endproc
 2008              	.LFE47:
 2010              		.section	.text.Error_Handler,"ax",%progbits
 2011              		.align	1
 2012              		.p2align 2,,3
 2013              		.global	Error_Handler
 2014              		.syntax unified
 2015              		.code	16
 2016              		.thumb_func
 2018              	Error_Handler:
 2019              	.LFB51:
 388:Core/Src/main.c ****   /* USER CODE BEGIN Error_Handler_Debug */
 2020              		.loc 1 388 1 is_stmt 1 view -0
 2021              		.cfi_startproc
 2022              		@ Volatile: function does not return.
 2023              		@ args = 0, pretend = 0, frame = 0
 2024              		@ frame_needed = 0, uses_anonymous_args = 0
 2025              		@ link register save eliminated.
 391:Core/Src/main.c ****   while (1)
 2026              		.loc 1 391 3 view .LVU539
 2027              	.LBB184:
 2028              	.LBI184:
 140:Drivers/CMSIS/Include/cmsis_gcc.h **** {
 2029              		.loc 2 140 27 view .LVU540
 2030              	.LBB185:
 2031              		.loc 2 142 3 view .LVU541
 2032              		.syntax divided
 2033              	@ 142 "Drivers/CMSIS/Include/cmsis_gcc.h" 1
 2034 0000 72B6     		cpsid i
 2035              	@ 0 "" 2
 2036              		.thumb
 2037              		.syntax unified
ARM GAS  C:\Users\maari\AppData\Local\Temp\ccZYJnBB.s 			page 55


 2038              	.L86:
 2039              	.LBE185:
 2040              	.LBE184:
 392:Core/Src/main.c ****   {
 2041              		.loc 1 392 3 view .LVU542
 2042              		.loc 1 394 3 view .LVU543
 392:Core/Src/main.c ****   {
 2043              		.loc 1 392 9 view .LVU544
 392:Core/Src/main.c ****   {
 2044              		.loc 1 392 3 view .LVU545
 2045              		.loc 1 394 3 view .LVU546
 392:Core/Src/main.c ****   {
 2046              		.loc 1 392 9 view .LVU547
 2047 0002 FEE7     		b	.L86
 2048              		.cfi_endproc
 2049              	.LFE51:
 2051              		.global	runtime
 2052              		.section	.bss.runtime,"aw",%nobits
 2053              		.align	2
 2056              	runtime:
 2057 0000 00000000 		.space	4
 2058              		.global	initial_width
 2059              		.section	.data.initial_width,"aw"
 2060              		.align	2
 2063              	initial_width:
 2064 0000 E0000000 		.word	224
 2065              		.global	initial_height
 2066              		.section	.data.initial_height,"aw"
 2067              		.align	2
 2070              	initial_height:
 2071 0000 E0000000 		.word	224
 2072              		.global	execution_time
 2073              		.section	.bss.execution_time,"aw",%nobits
 2074              		.align	3
 2077              	execution_time:
 2078 0000 00000000 		.space	8
 2078      00000000 
 2079              		.global	checksum
 2080              		.section	.bss.checksum,"aw",%nobits
 2081              		.align	3
 2084              	checksum:
 2085 0000 00000000 		.space	8
 2085      00000000 
 2086              		.global	imageDimensions
 2087              		.section	.data.imageDimensions,"aw"
 2088              		.align	2
 2091              	imageDimensions:
 2092 0000 80000000 		.word	128
 2093 0004 A0000000 		.word	160
 2094 0008 C0000000 		.word	192
 2095 000c E0000000 		.word	224
 2096 0010 00010000 		.word	256
 2097              		.global	end_time
 2098              		.section	.bss.end_time,"aw",%nobits
 2099              		.align	3
 2102              	end_time:
 2103 0000 00000000 		.space	8
ARM GAS  C:\Users\maari\AppData\Local\Temp\ccZYJnBB.s 			page 56


 2103      00000000 
 2104              		.global	start_time
 2105              		.section	.bss.start_time,"aw",%nobits
 2106              		.align	3
 2109              	start_time:
 2110 0000 00000000 		.space	8
 2110      00000000 
 2111              		.text
 2112              	.Letext0:
 2113              		.file 3 "C:\\ST\\STM32CubeIDE_1.19.0\\STM32CubeIDE\\plugins\\com.st.stm32cube.ide.mcu.externaltool
 2114              		.file 4 "C:\\ST\\STM32CubeIDE_1.19.0\\STM32CubeIDE\\plugins\\com.st.stm32cube.ide.mcu.externaltool
 2115              		.file 5 "Drivers/CMSIS/Device/ST/STM32F0xx/Include/stm32f051x8.h"
 2116              		.file 6 "Drivers/STM32F0xx_HAL_Driver/Inc/stm32f0xx_hal_def.h"
 2117              		.file 7 "Drivers/STM32F0xx_HAL_Driver/Inc/stm32f0xx_hal_rcc.h"
 2118              		.file 8 "Drivers/STM32F0xx_HAL_Driver/Inc/stm32f0xx_hal_gpio.h"
 2119              		.file 9 "Drivers/STM32F0xx_HAL_Driver/Inc/stm32f0xx_hal.h"
 2120              		.file 10 "<built-in>"
ARM GAS  C:\Users\maari\AppData\Local\Temp\ccZYJnBB.s 			page 57

