ARM GAS  C:\Users\maari\AppData\Local\Temp\ccCUEZrL.s 			page 1


   1              		.cpu cortex-m0
   2              		.arch armv6s-m
   3              		.fpu softvfp
   4              		.eabi_attribute 20, 1
   5              		.eabi_attribute 21, 1
   6              		.eabi_attribute 23, 3
   7              		.eabi_attribute 24, 1
   8              		.eabi_attribute 25, 1
   9              		.eabi_attribute 26, 1
  10              		.eabi_attribute 30, 2
  11              		.eabi_attribute 34, 0
  12              		.eabi_attribute 18, 4
  13              		.file	"stm32f0xx_hal_dma.c"
  14              		.text
  15              	.Ltext0:
  16              		.cfi_sections	.debug_frame
  17              		.file 1 "Drivers/STM32F0xx_HAL_Driver/Src/stm32f0xx_hal_dma.c"
  18              		.global	__aeabi_uidiv
  19              		.section	.text.HAL_DMA_Init,"ax",%progbits
  20              		.align	1
  21              		.p2align 2,,3
  22              		.global	HAL_DMA_Init
  23              		.syntax unified
  24              		.code	16
  25              		.thumb_func
  27              	HAL_DMA_Init:
  28              	.LVL0:
  29              	.LFB40:
   1:Drivers/STM32F0xx_HAL_Driver/Src/stm32f0xx_hal_dma.c **** /**
   2:Drivers/STM32F0xx_HAL_Driver/Src/stm32f0xx_hal_dma.c ****   ******************************************************************************
   3:Drivers/STM32F0xx_HAL_Driver/Src/stm32f0xx_hal_dma.c ****   * @file    stm32f0xx_hal_dma.c
   4:Drivers/STM32F0xx_HAL_Driver/Src/stm32f0xx_hal_dma.c ****   * @author  MCD Application Team
   5:Drivers/STM32F0xx_HAL_Driver/Src/stm32f0xx_hal_dma.c ****   * @brief   DMA HAL module driver.
   6:Drivers/STM32F0xx_HAL_Driver/Src/stm32f0xx_hal_dma.c ****   *
   7:Drivers/STM32F0xx_HAL_Driver/Src/stm32f0xx_hal_dma.c ****   *         This file provides firmware functions to manage the following
   8:Drivers/STM32F0xx_HAL_Driver/Src/stm32f0xx_hal_dma.c ****   *         functionalities of the Direct Memory Access (DMA) peripheral:
   9:Drivers/STM32F0xx_HAL_Driver/Src/stm32f0xx_hal_dma.c ****   *           + Initialization and de-initialization functions
  10:Drivers/STM32F0xx_HAL_Driver/Src/stm32f0xx_hal_dma.c ****   *           + IO operation functions
  11:Drivers/STM32F0xx_HAL_Driver/Src/stm32f0xx_hal_dma.c ****   *           + Peripheral State and errors functions
  12:Drivers/STM32F0xx_HAL_Driver/Src/stm32f0xx_hal_dma.c ****   @verbatim
  13:Drivers/STM32F0xx_HAL_Driver/Src/stm32f0xx_hal_dma.c ****   ==============================================================================
  14:Drivers/STM32F0xx_HAL_Driver/Src/stm32f0xx_hal_dma.c ****                         ##### How to use this driver #####
  15:Drivers/STM32F0xx_HAL_Driver/Src/stm32f0xx_hal_dma.c ****   ==============================================================================
  16:Drivers/STM32F0xx_HAL_Driver/Src/stm32f0xx_hal_dma.c ****   [..]
  17:Drivers/STM32F0xx_HAL_Driver/Src/stm32f0xx_hal_dma.c ****    (#) Enable and configure the peripheral to be connected to the DMA Channel
  18:Drivers/STM32F0xx_HAL_Driver/Src/stm32f0xx_hal_dma.c ****        (except for internal SRAM / FLASH memories: no initialization is
  19:Drivers/STM32F0xx_HAL_Driver/Src/stm32f0xx_hal_dma.c ****        necessary). Please refer to Reference manual for connection between peripherals
  20:Drivers/STM32F0xx_HAL_Driver/Src/stm32f0xx_hal_dma.c ****        and DMA requests .
  21:Drivers/STM32F0xx_HAL_Driver/Src/stm32f0xx_hal_dma.c **** 
  22:Drivers/STM32F0xx_HAL_Driver/Src/stm32f0xx_hal_dma.c ****    (#) For a given Channel, program the required configuration through the following parameters:
  23:Drivers/STM32F0xx_HAL_Driver/Src/stm32f0xx_hal_dma.c ****        Transfer Direction, Source and Destination data formats,
  24:Drivers/STM32F0xx_HAL_Driver/Src/stm32f0xx_hal_dma.c ****        Circular or Normal mode, Channel Priority level, Source and Destination Increment mode,
  25:Drivers/STM32F0xx_HAL_Driver/Src/stm32f0xx_hal_dma.c ****        using HAL_DMA_Init() function.
  26:Drivers/STM32F0xx_HAL_Driver/Src/stm32f0xx_hal_dma.c **** 
  27:Drivers/STM32F0xx_HAL_Driver/Src/stm32f0xx_hal_dma.c ****    (#) Use HAL_DMA_GetState() function to return the DMA state and HAL_DMA_GetError() in case of er
  28:Drivers/STM32F0xx_HAL_Driver/Src/stm32f0xx_hal_dma.c ****        detection.
  29:Drivers/STM32F0xx_HAL_Driver/Src/stm32f0xx_hal_dma.c **** 
ARM GAS  C:\Users\maari\AppData\Local\Temp\ccCUEZrL.s 			page 2


  30:Drivers/STM32F0xx_HAL_Driver/Src/stm32f0xx_hal_dma.c ****    (#) Use HAL_DMA_Abort() function to abort the current transfer
  31:Drivers/STM32F0xx_HAL_Driver/Src/stm32f0xx_hal_dma.c **** 
  32:Drivers/STM32F0xx_HAL_Driver/Src/stm32f0xx_hal_dma.c ****      -@-   In Memory-to-Memory transfer mode, Circular mode is not allowed.
  33:Drivers/STM32F0xx_HAL_Driver/Src/stm32f0xx_hal_dma.c ****      *** Polling mode IO operation ***
  34:Drivers/STM32F0xx_HAL_Driver/Src/stm32f0xx_hal_dma.c ****      =================================
  35:Drivers/STM32F0xx_HAL_Driver/Src/stm32f0xx_hal_dma.c ****     [..]
  36:Drivers/STM32F0xx_HAL_Driver/Src/stm32f0xx_hal_dma.c ****       (+) Use HAL_DMA_Start() to start DMA transfer after the configuration of Source
  37:Drivers/STM32F0xx_HAL_Driver/Src/stm32f0xx_hal_dma.c ****           address and destination address and the Length of data to be transferred
  38:Drivers/STM32F0xx_HAL_Driver/Src/stm32f0xx_hal_dma.c ****       (+) Use HAL_DMA_PollForTransfer() to poll for the end of current transfer, in this
  39:Drivers/STM32F0xx_HAL_Driver/Src/stm32f0xx_hal_dma.c ****           case a fixed Timeout can be configured by User depending from his application.
  40:Drivers/STM32F0xx_HAL_Driver/Src/stm32f0xx_hal_dma.c **** 
  41:Drivers/STM32F0xx_HAL_Driver/Src/stm32f0xx_hal_dma.c ****      *** Interrupt mode IO operation ***
  42:Drivers/STM32F0xx_HAL_Driver/Src/stm32f0xx_hal_dma.c ****      ===================================
  43:Drivers/STM32F0xx_HAL_Driver/Src/stm32f0xx_hal_dma.c ****     [..]
  44:Drivers/STM32F0xx_HAL_Driver/Src/stm32f0xx_hal_dma.c ****       (+) Configure the DMA interrupt priority using HAL_NVIC_SetPriority()
  45:Drivers/STM32F0xx_HAL_Driver/Src/stm32f0xx_hal_dma.c ****       (+) Enable the DMA IRQ handler using HAL_NVIC_EnableIRQ()
  46:Drivers/STM32F0xx_HAL_Driver/Src/stm32f0xx_hal_dma.c ****       (+) Use HAL_DMA_Start_IT() to start DMA transfer after the configuration of
  47:Drivers/STM32F0xx_HAL_Driver/Src/stm32f0xx_hal_dma.c ****           Source address and destination address and the Length of data to be transferred.
  48:Drivers/STM32F0xx_HAL_Driver/Src/stm32f0xx_hal_dma.c ****           In this case the DMA interrupt is configured
  49:Drivers/STM32F0xx_HAL_Driver/Src/stm32f0xx_hal_dma.c ****       (+) Use HAL_DMA_Channel_IRQHandler() called under DMA_IRQHandler() Interrupt subroutine
  50:Drivers/STM32F0xx_HAL_Driver/Src/stm32f0xx_hal_dma.c ****       (+) At the end of data transfer HAL_DMA_IRQHandler() function is executed and user can
  51:Drivers/STM32F0xx_HAL_Driver/Src/stm32f0xx_hal_dma.c ****           add his own function by customization of function pointer XferCpltCallback and
  52:Drivers/STM32F0xx_HAL_Driver/Src/stm32f0xx_hal_dma.c ****           XferErrorCallback (i.e a member of DMA handle structure).
  53:Drivers/STM32F0xx_HAL_Driver/Src/stm32f0xx_hal_dma.c **** 
  54:Drivers/STM32F0xx_HAL_Driver/Src/stm32f0xx_hal_dma.c ****      *** DMA HAL driver macros list ***
  55:Drivers/STM32F0xx_HAL_Driver/Src/stm32f0xx_hal_dma.c ****      =============================================
  56:Drivers/STM32F0xx_HAL_Driver/Src/stm32f0xx_hal_dma.c ****      [..]
  57:Drivers/STM32F0xx_HAL_Driver/Src/stm32f0xx_hal_dma.c ****        Below the list of most used macros in DMA HAL driver.
  58:Drivers/STM32F0xx_HAL_Driver/Src/stm32f0xx_hal_dma.c **** 
  59:Drivers/STM32F0xx_HAL_Driver/Src/stm32f0xx_hal_dma.c ****      [..]
  60:Drivers/STM32F0xx_HAL_Driver/Src/stm32f0xx_hal_dma.c ****       (@) You can refer to the DMA HAL driver header file for more useful macros
  61:Drivers/STM32F0xx_HAL_Driver/Src/stm32f0xx_hal_dma.c **** 
  62:Drivers/STM32F0xx_HAL_Driver/Src/stm32f0xx_hal_dma.c ****   @endverbatim
  63:Drivers/STM32F0xx_HAL_Driver/Src/stm32f0xx_hal_dma.c ****   ******************************************************************************
  64:Drivers/STM32F0xx_HAL_Driver/Src/stm32f0xx_hal_dma.c ****   * @attention
  65:Drivers/STM32F0xx_HAL_Driver/Src/stm32f0xx_hal_dma.c ****   *
  66:Drivers/STM32F0xx_HAL_Driver/Src/stm32f0xx_hal_dma.c ****   * Copyright (c) 2016 STMicroelectronics.
  67:Drivers/STM32F0xx_HAL_Driver/Src/stm32f0xx_hal_dma.c ****   * All rights reserved.
  68:Drivers/STM32F0xx_HAL_Driver/Src/stm32f0xx_hal_dma.c ****   *
  69:Drivers/STM32F0xx_HAL_Driver/Src/stm32f0xx_hal_dma.c ****   * This software is licensed under terms that can be found in the LICENSE file in
  70:Drivers/STM32F0xx_HAL_Driver/Src/stm32f0xx_hal_dma.c ****   * the root directory of this software component.
  71:Drivers/STM32F0xx_HAL_Driver/Src/stm32f0xx_hal_dma.c ****   * If no LICENSE file comes with this software, it is provided AS-IS.
  72:Drivers/STM32F0xx_HAL_Driver/Src/stm32f0xx_hal_dma.c ****   *
  73:Drivers/STM32F0xx_HAL_Driver/Src/stm32f0xx_hal_dma.c ****   ******************************************************************************
  74:Drivers/STM32F0xx_HAL_Driver/Src/stm32f0xx_hal_dma.c ****   */
  75:Drivers/STM32F0xx_HAL_Driver/Src/stm32f0xx_hal_dma.c **** 
  76:Drivers/STM32F0xx_HAL_Driver/Src/stm32f0xx_hal_dma.c **** /* Includes ------------------------------------------------------------------*/
  77:Drivers/STM32F0xx_HAL_Driver/Src/stm32f0xx_hal_dma.c **** #include "stm32f0xx_hal.h"
  78:Drivers/STM32F0xx_HAL_Driver/Src/stm32f0xx_hal_dma.c **** 
  79:Drivers/STM32F0xx_HAL_Driver/Src/stm32f0xx_hal_dma.c **** /** @addtogroup STM32F0xx_HAL_Driver
  80:Drivers/STM32F0xx_HAL_Driver/Src/stm32f0xx_hal_dma.c ****   * @{
  81:Drivers/STM32F0xx_HAL_Driver/Src/stm32f0xx_hal_dma.c ****   */
  82:Drivers/STM32F0xx_HAL_Driver/Src/stm32f0xx_hal_dma.c **** 
  83:Drivers/STM32F0xx_HAL_Driver/Src/stm32f0xx_hal_dma.c **** 
  84:Drivers/STM32F0xx_HAL_Driver/Src/stm32f0xx_hal_dma.c **** /** @defgroup DMA DMA
  85:Drivers/STM32F0xx_HAL_Driver/Src/stm32f0xx_hal_dma.c ****   * @brief DMA HAL module driver
  86:Drivers/STM32F0xx_HAL_Driver/Src/stm32f0xx_hal_dma.c ****   * @{
ARM GAS  C:\Users\maari\AppData\Local\Temp\ccCUEZrL.s 			page 3


  87:Drivers/STM32F0xx_HAL_Driver/Src/stm32f0xx_hal_dma.c ****   */
  88:Drivers/STM32F0xx_HAL_Driver/Src/stm32f0xx_hal_dma.c **** 
  89:Drivers/STM32F0xx_HAL_Driver/Src/stm32f0xx_hal_dma.c **** #ifdef HAL_DMA_MODULE_ENABLED
  90:Drivers/STM32F0xx_HAL_Driver/Src/stm32f0xx_hal_dma.c **** 
  91:Drivers/STM32F0xx_HAL_Driver/Src/stm32f0xx_hal_dma.c **** /* Private typedef -----------------------------------------------------------*/
  92:Drivers/STM32F0xx_HAL_Driver/Src/stm32f0xx_hal_dma.c **** /* Private define ------------------------------------------------------------*/
  93:Drivers/STM32F0xx_HAL_Driver/Src/stm32f0xx_hal_dma.c **** /* Private macro -------------------------------------------------------------*/
  94:Drivers/STM32F0xx_HAL_Driver/Src/stm32f0xx_hal_dma.c **** /* Private variables ---------------------------------------------------------*/
  95:Drivers/STM32F0xx_HAL_Driver/Src/stm32f0xx_hal_dma.c **** /* Private function prototypes -----------------------------------------------*/
  96:Drivers/STM32F0xx_HAL_Driver/Src/stm32f0xx_hal_dma.c **** /** @defgroup DMA_Private_Functions DMA Private Functions
  97:Drivers/STM32F0xx_HAL_Driver/Src/stm32f0xx_hal_dma.c ****   * @{
  98:Drivers/STM32F0xx_HAL_Driver/Src/stm32f0xx_hal_dma.c ****   */
  99:Drivers/STM32F0xx_HAL_Driver/Src/stm32f0xx_hal_dma.c **** static void DMA_SetConfig(DMA_HandleTypeDef *hdma, uint32_t SrcAddress, uint32_t DstAddress, uint32
 100:Drivers/STM32F0xx_HAL_Driver/Src/stm32f0xx_hal_dma.c **** static void DMA_CalcBaseAndBitshift(DMA_HandleTypeDef *hdma);
 101:Drivers/STM32F0xx_HAL_Driver/Src/stm32f0xx_hal_dma.c **** /**
 102:Drivers/STM32F0xx_HAL_Driver/Src/stm32f0xx_hal_dma.c ****   * @}
 103:Drivers/STM32F0xx_HAL_Driver/Src/stm32f0xx_hal_dma.c ****   */
 104:Drivers/STM32F0xx_HAL_Driver/Src/stm32f0xx_hal_dma.c **** 
 105:Drivers/STM32F0xx_HAL_Driver/Src/stm32f0xx_hal_dma.c **** /* Exported functions ---------------------------------------------------------*/
 106:Drivers/STM32F0xx_HAL_Driver/Src/stm32f0xx_hal_dma.c **** 
 107:Drivers/STM32F0xx_HAL_Driver/Src/stm32f0xx_hal_dma.c **** /** @defgroup DMA_Exported_Functions DMA Exported Functions
 108:Drivers/STM32F0xx_HAL_Driver/Src/stm32f0xx_hal_dma.c ****   * @{
 109:Drivers/STM32F0xx_HAL_Driver/Src/stm32f0xx_hal_dma.c ****   */
 110:Drivers/STM32F0xx_HAL_Driver/Src/stm32f0xx_hal_dma.c **** 
 111:Drivers/STM32F0xx_HAL_Driver/Src/stm32f0xx_hal_dma.c **** /** @defgroup DMA_Exported_Functions_Group1 Initialization and de-initialization functions
 112:Drivers/STM32F0xx_HAL_Driver/Src/stm32f0xx_hal_dma.c ****  *  @brief   Initialization and de-initialization functions
 113:Drivers/STM32F0xx_HAL_Driver/Src/stm32f0xx_hal_dma.c ****  *
 114:Drivers/STM32F0xx_HAL_Driver/Src/stm32f0xx_hal_dma.c **** @verbatim
 115:Drivers/STM32F0xx_HAL_Driver/Src/stm32f0xx_hal_dma.c ****  ===============================================================================
 116:Drivers/STM32F0xx_HAL_Driver/Src/stm32f0xx_hal_dma.c ****              ##### Initialization and de-initialization functions  #####
 117:Drivers/STM32F0xx_HAL_Driver/Src/stm32f0xx_hal_dma.c ****  ===============================================================================
 118:Drivers/STM32F0xx_HAL_Driver/Src/stm32f0xx_hal_dma.c ****     [..]
 119:Drivers/STM32F0xx_HAL_Driver/Src/stm32f0xx_hal_dma.c ****     This section provides functions allowing to initialize the DMA Channel source
 120:Drivers/STM32F0xx_HAL_Driver/Src/stm32f0xx_hal_dma.c ****     and destination addresses, incrementation and data sizes, transfer direction,
 121:Drivers/STM32F0xx_HAL_Driver/Src/stm32f0xx_hal_dma.c ****     circular/normal mode selection, memory-to-memory mode selection and Channel priority value.
 122:Drivers/STM32F0xx_HAL_Driver/Src/stm32f0xx_hal_dma.c ****     [..]
 123:Drivers/STM32F0xx_HAL_Driver/Src/stm32f0xx_hal_dma.c ****     The HAL_DMA_Init() function follows the DMA configuration procedures as described in
 124:Drivers/STM32F0xx_HAL_Driver/Src/stm32f0xx_hal_dma.c ****     reference manual.
 125:Drivers/STM32F0xx_HAL_Driver/Src/stm32f0xx_hal_dma.c **** 
 126:Drivers/STM32F0xx_HAL_Driver/Src/stm32f0xx_hal_dma.c **** @endverbatim
 127:Drivers/STM32F0xx_HAL_Driver/Src/stm32f0xx_hal_dma.c ****   * @{
 128:Drivers/STM32F0xx_HAL_Driver/Src/stm32f0xx_hal_dma.c ****   */
 129:Drivers/STM32F0xx_HAL_Driver/Src/stm32f0xx_hal_dma.c **** 
 130:Drivers/STM32F0xx_HAL_Driver/Src/stm32f0xx_hal_dma.c **** /**
 131:Drivers/STM32F0xx_HAL_Driver/Src/stm32f0xx_hal_dma.c ****   * @brief  Initialize the DMA according to the specified
 132:Drivers/STM32F0xx_HAL_Driver/Src/stm32f0xx_hal_dma.c ****   *         parameters in the DMA_InitTypeDef and initialize the associated handle.
 133:Drivers/STM32F0xx_HAL_Driver/Src/stm32f0xx_hal_dma.c ****   * @param  hdma Pointer to a DMA_HandleTypeDef structure that contains
 134:Drivers/STM32F0xx_HAL_Driver/Src/stm32f0xx_hal_dma.c ****   *               the configuration information for the specified DMA Channel.
 135:Drivers/STM32F0xx_HAL_Driver/Src/stm32f0xx_hal_dma.c ****   * @retval HAL status
 136:Drivers/STM32F0xx_HAL_Driver/Src/stm32f0xx_hal_dma.c ****   */
 137:Drivers/STM32F0xx_HAL_Driver/Src/stm32f0xx_hal_dma.c **** HAL_StatusTypeDef HAL_DMA_Init(DMA_HandleTypeDef *hdma)
 138:Drivers/STM32F0xx_HAL_Driver/Src/stm32f0xx_hal_dma.c **** {
  30              		.loc 1 138 1 view -0
  31              		.cfi_startproc
  32              		@ args = 0, pretend = 0, frame = 0
  33              		@ frame_needed = 0, uses_anonymous_args = 0
 139:Drivers/STM32F0xx_HAL_Driver/Src/stm32f0xx_hal_dma.c ****   uint32_t tmp = 0U;
ARM GAS  C:\Users\maari\AppData\Local\Temp\ccCUEZrL.s 			page 4


  34              		.loc 1 139 3 view .LVU1
 140:Drivers/STM32F0xx_HAL_Driver/Src/stm32f0xx_hal_dma.c **** 
 141:Drivers/STM32F0xx_HAL_Driver/Src/stm32f0xx_hal_dma.c ****   /* Check the DMA handle allocation */
 142:Drivers/STM32F0xx_HAL_Driver/Src/stm32f0xx_hal_dma.c ****   if (NULL == hdma)
  35              		.loc 1 142 3 view .LVU2
 138:Drivers/STM32F0xx_HAL_Driver/Src/stm32f0xx_hal_dma.c ****   uint32_t tmp = 0U;
  36              		.loc 1 138 1 is_stmt 0 view .LVU3
  37 0000 70B5     		push	{r4, r5, r6, lr}
  38              	.LCFI0:
  39              		.cfi_def_cfa_offset 16
  40              		.cfi_offset 4, -16
  41              		.cfi_offset 5, -12
  42              		.cfi_offset 6, -8
  43              		.cfi_offset 14, -4
 138:Drivers/STM32F0xx_HAL_Driver/Src/stm32f0xx_hal_dma.c ****   uint32_t tmp = 0U;
  44              		.loc 1 138 1 view .LVU4
  45 0002 041E     		subs	r4, r0, #0
  46              		.loc 1 142 6 view .LVU5
  47 0004 27D0     		beq	.L3
 143:Drivers/STM32F0xx_HAL_Driver/Src/stm32f0xx_hal_dma.c ****   {
 144:Drivers/STM32F0xx_HAL_Driver/Src/stm32f0xx_hal_dma.c ****     return HAL_ERROR;
 145:Drivers/STM32F0xx_HAL_Driver/Src/stm32f0xx_hal_dma.c ****   }
 146:Drivers/STM32F0xx_HAL_Driver/Src/stm32f0xx_hal_dma.c **** 
 147:Drivers/STM32F0xx_HAL_Driver/Src/stm32f0xx_hal_dma.c ****   /* Check the parameters */
 148:Drivers/STM32F0xx_HAL_Driver/Src/stm32f0xx_hal_dma.c ****   assert_param(IS_DMA_ALL_INSTANCE(hdma->Instance));
  48              		.loc 1 148 3 is_stmt 1 view .LVU6
 149:Drivers/STM32F0xx_HAL_Driver/Src/stm32f0xx_hal_dma.c ****   assert_param(IS_DMA_DIRECTION(hdma->Init.Direction));
  49              		.loc 1 149 3 view .LVU7
 150:Drivers/STM32F0xx_HAL_Driver/Src/stm32f0xx_hal_dma.c ****   assert_param(IS_DMA_PERIPHERAL_INC_STATE(hdma->Init.PeriphInc));
  50              		.loc 1 150 3 view .LVU8
 151:Drivers/STM32F0xx_HAL_Driver/Src/stm32f0xx_hal_dma.c ****   assert_param(IS_DMA_MEMORY_INC_STATE(hdma->Init.MemInc));
  51              		.loc 1 151 3 view .LVU9
 152:Drivers/STM32F0xx_HAL_Driver/Src/stm32f0xx_hal_dma.c ****   assert_param(IS_DMA_PERIPHERAL_DATA_SIZE(hdma->Init.PeriphDataAlignment));
  52              		.loc 1 152 3 view .LVU10
 153:Drivers/STM32F0xx_HAL_Driver/Src/stm32f0xx_hal_dma.c ****   assert_param(IS_DMA_MEMORY_DATA_SIZE(hdma->Init.MemDataAlignment));
  53              		.loc 1 153 3 view .LVU11
 154:Drivers/STM32F0xx_HAL_Driver/Src/stm32f0xx_hal_dma.c ****   assert_param(IS_DMA_MODE(hdma->Init.Mode));
  54              		.loc 1 154 3 view .LVU12
 155:Drivers/STM32F0xx_HAL_Driver/Src/stm32f0xx_hal_dma.c ****   assert_param(IS_DMA_PRIORITY(hdma->Init.Priority));
  55              		.loc 1 155 3 view .LVU13
 156:Drivers/STM32F0xx_HAL_Driver/Src/stm32f0xx_hal_dma.c **** 
 157:Drivers/STM32F0xx_HAL_Driver/Src/stm32f0xx_hal_dma.c ****   /* Change DMA peripheral state */
 158:Drivers/STM32F0xx_HAL_Driver/Src/stm32f0xx_hal_dma.c ****   hdma->State = HAL_DMA_STATE_BUSY;
  56              		.loc 1 158 3 view .LVU14
  57              		.loc 1 158 15 is_stmt 0 view .LVU15
  58 0006 2125     		movs	r5, #33
  59 0008 0223     		movs	r3, #2
  60 000a 4355     		strb	r3, [r0, r5]
 159:Drivers/STM32F0xx_HAL_Driver/Src/stm32f0xx_hal_dma.c **** 
 160:Drivers/STM32F0xx_HAL_Driver/Src/stm32f0xx_hal_dma.c ****   /* Get the CR register value */
 161:Drivers/STM32F0xx_HAL_Driver/Src/stm32f0xx_hal_dma.c ****   tmp = hdma->Instance->CCR;
  61              		.loc 1 161 3 is_stmt 1 view .LVU16
  62              		.loc 1 161 13 is_stmt 0 view .LVU17
  63 000c 0068     		ldr	r0, [r0]
  64              	.LVL1:
 162:Drivers/STM32F0xx_HAL_Driver/Src/stm32f0xx_hal_dma.c **** 
 163:Drivers/STM32F0xx_HAL_Driver/Src/stm32f0xx_hal_dma.c ****   /* Clear PL, MSIZE, PSIZE, MINC, PINC, CIRC, DIR bits */
ARM GAS  C:\Users\maari\AppData\Local\Temp\ccCUEZrL.s 			page 5


 164:Drivers/STM32F0xx_HAL_Driver/Src/stm32f0xx_hal_dma.c ****   tmp &= ((uint32_t)~(DMA_CCR_PL    | DMA_CCR_MSIZE  | DMA_CCR_PSIZE  | \
  65              		.loc 1 164 7 view .LVU18
  66 000e 134B     		ldr	r3, .L5
 161:Drivers/STM32F0xx_HAL_Driver/Src/stm32f0xx_hal_dma.c **** 
  67              		.loc 1 161 7 view .LVU19
  68 0010 0268     		ldr	r2, [r0]
  69              	.LVL2:
  70              		.loc 1 164 3 is_stmt 1 view .LVU20
 165:Drivers/STM32F0xx_HAL_Driver/Src/stm32f0xx_hal_dma.c ****                       DMA_CCR_MINC  | DMA_CCR_PINC   | DMA_CCR_CIRC   | \
 166:Drivers/STM32F0xx_HAL_Driver/Src/stm32f0xx_hal_dma.c ****                       DMA_CCR_DIR));
 167:Drivers/STM32F0xx_HAL_Driver/Src/stm32f0xx_hal_dma.c **** 
 168:Drivers/STM32F0xx_HAL_Driver/Src/stm32f0xx_hal_dma.c ****   /* Prepare the DMA Channel configuration */
 169:Drivers/STM32F0xx_HAL_Driver/Src/stm32f0xx_hal_dma.c ****   tmp |=  hdma->Init.Direction        |
  71              		.loc 1 169 39 is_stmt 0 view .LVU21
  72 0012 A168     		ldr	r1, [r4, #8]
 164:Drivers/STM32F0xx_HAL_Driver/Src/stm32f0xx_hal_dma.c ****                       DMA_CCR_MINC  | DMA_CCR_PINC   | DMA_CCR_CIRC   | \
  73              		.loc 1 164 7 view .LVU22
  74 0014 1A40     		ands	r2, r3
  75              	.LVL3:
  76              		.loc 1 169 3 is_stmt 1 view .LVU23
  77              		.loc 1 169 39 is_stmt 0 view .LVU24
  78 0016 6368     		ldr	r3, [r4, #4]
  79 0018 0B43     		orrs	r3, r1
 170:Drivers/STM32F0xx_HAL_Driver/Src/stm32f0xx_hal_dma.c ****           hdma->Init.PeriphInc           | hdma->Init.MemInc           |
  80              		.loc 1 170 42 view .LVU25
  81 001a E168     		ldr	r1, [r4, #12]
  82 001c 0B43     		orrs	r3, r1
  83              		.loc 1 170 72 view .LVU26
  84 001e 2169     		ldr	r1, [r4, #16]
  85 0020 0B43     		orrs	r3, r1
 171:Drivers/STM32F0xx_HAL_Driver/Src/stm32f0xx_hal_dma.c ****           hdma->Init.PeriphDataAlignment | hdma->Init.MemDataAlignment |
  86              		.loc 1 171 42 view .LVU27
  87 0022 6169     		ldr	r1, [r4, #20]
  88 0024 0B43     		orrs	r3, r1
  89              		.loc 1 171 72 view .LVU28
  90 0026 A169     		ldr	r1, [r4, #24]
  91 0028 0B43     		orrs	r3, r1
 172:Drivers/STM32F0xx_HAL_Driver/Src/stm32f0xx_hal_dma.c ****           hdma->Init.Mode                | hdma->Init.Priority;
  92              		.loc 1 172 42 view .LVU29
  93 002a E169     		ldr	r1, [r4, #28]
  94 002c 0B43     		orrs	r3, r1
 169:Drivers/STM32F0xx_HAL_Driver/Src/stm32f0xx_hal_dma.c ****           hdma->Init.PeriphInc           | hdma->Init.MemInc           |
  95              		.loc 1 169 7 view .LVU30
  96 002e 1343     		orrs	r3, r2
  97              	.LVL4:
 173:Drivers/STM32F0xx_HAL_Driver/Src/stm32f0xx_hal_dma.c **** 
 174:Drivers/STM32F0xx_HAL_Driver/Src/stm32f0xx_hal_dma.c ****   /* Write to DMA Channel CR register */
 175:Drivers/STM32F0xx_HAL_Driver/Src/stm32f0xx_hal_dma.c ****   hdma->Instance->CCR = tmp;
  98              		.loc 1 175 3 is_stmt 1 view .LVU31
  99              		.loc 1 175 23 is_stmt 0 view .LVU32
 100 0030 0360     		str	r3, [r0]
 176:Drivers/STM32F0xx_HAL_Driver/Src/stm32f0xx_hal_dma.c **** 
 177:Drivers/STM32F0xx_HAL_Driver/Src/stm32f0xx_hal_dma.c ****   /* Initialize DmaBaseAddress and ChannelIndex parameters used
 178:Drivers/STM32F0xx_HAL_Driver/Src/stm32f0xx_hal_dma.c ****      by HAL_DMA_IRQHandler() and HAL_DMA_PollForTransfer() */
 179:Drivers/STM32F0xx_HAL_Driver/Src/stm32f0xx_hal_dma.c ****   DMA_CalcBaseAndBitshift(hdma);
 101              		.loc 1 179 3 is_stmt 1 view .LVU33
 102              	.LVL5:
ARM GAS  C:\Users\maari\AppData\Local\Temp\ccCUEZrL.s 			page 6


 103              	.LBB10:
 104              	.LBI10:
 180:Drivers/STM32F0xx_HAL_Driver/Src/stm32f0xx_hal_dma.c **** 
 181:Drivers/STM32F0xx_HAL_Driver/Src/stm32f0xx_hal_dma.c ****   /* Initialise the error code */
 182:Drivers/STM32F0xx_HAL_Driver/Src/stm32f0xx_hal_dma.c ****   hdma->ErrorCode = HAL_DMA_ERROR_NONE;
 183:Drivers/STM32F0xx_HAL_Driver/Src/stm32f0xx_hal_dma.c **** 
 184:Drivers/STM32F0xx_HAL_Driver/Src/stm32f0xx_hal_dma.c ****   /* Initialize the DMA state*/
 185:Drivers/STM32F0xx_HAL_Driver/Src/stm32f0xx_hal_dma.c ****   hdma->State = HAL_DMA_STATE_READY;
 186:Drivers/STM32F0xx_HAL_Driver/Src/stm32f0xx_hal_dma.c **** 
 187:Drivers/STM32F0xx_HAL_Driver/Src/stm32f0xx_hal_dma.c ****   /* Allocate lock resource and initialize it */
 188:Drivers/STM32F0xx_HAL_Driver/Src/stm32f0xx_hal_dma.c ****   hdma->Lock = HAL_UNLOCKED;
 189:Drivers/STM32F0xx_HAL_Driver/Src/stm32f0xx_hal_dma.c **** 
 190:Drivers/STM32F0xx_HAL_Driver/Src/stm32f0xx_hal_dma.c ****   return HAL_OK;
 191:Drivers/STM32F0xx_HAL_Driver/Src/stm32f0xx_hal_dma.c **** }
 192:Drivers/STM32F0xx_HAL_Driver/Src/stm32f0xx_hal_dma.c **** 
 193:Drivers/STM32F0xx_HAL_Driver/Src/stm32f0xx_hal_dma.c **** /**
 194:Drivers/STM32F0xx_HAL_Driver/Src/stm32f0xx_hal_dma.c ****   * @brief  DeInitialize the DMA peripheral
 195:Drivers/STM32F0xx_HAL_Driver/Src/stm32f0xx_hal_dma.c ****   * @param  hdma pointer to a DMA_HandleTypeDef structure that contains
 196:Drivers/STM32F0xx_HAL_Driver/Src/stm32f0xx_hal_dma.c ****   *               the configuration information for the specified DMA Channel.
 197:Drivers/STM32F0xx_HAL_Driver/Src/stm32f0xx_hal_dma.c ****   * @retval HAL status
 198:Drivers/STM32F0xx_HAL_Driver/Src/stm32f0xx_hal_dma.c ****   */
 199:Drivers/STM32F0xx_HAL_Driver/Src/stm32f0xx_hal_dma.c **** HAL_StatusTypeDef HAL_DMA_DeInit(DMA_HandleTypeDef *hdma)
 200:Drivers/STM32F0xx_HAL_Driver/Src/stm32f0xx_hal_dma.c **** {
 201:Drivers/STM32F0xx_HAL_Driver/Src/stm32f0xx_hal_dma.c ****   /* Check the DMA handle allocation */
 202:Drivers/STM32F0xx_HAL_Driver/Src/stm32f0xx_hal_dma.c ****   if (NULL == hdma)
 203:Drivers/STM32F0xx_HAL_Driver/Src/stm32f0xx_hal_dma.c ****   {
 204:Drivers/STM32F0xx_HAL_Driver/Src/stm32f0xx_hal_dma.c ****     return HAL_ERROR;
 205:Drivers/STM32F0xx_HAL_Driver/Src/stm32f0xx_hal_dma.c ****   }
 206:Drivers/STM32F0xx_HAL_Driver/Src/stm32f0xx_hal_dma.c **** 
 207:Drivers/STM32F0xx_HAL_Driver/Src/stm32f0xx_hal_dma.c ****   /* Check the parameters */
 208:Drivers/STM32F0xx_HAL_Driver/Src/stm32f0xx_hal_dma.c ****   assert_param(IS_DMA_ALL_INSTANCE(hdma->Instance));
 209:Drivers/STM32F0xx_HAL_Driver/Src/stm32f0xx_hal_dma.c **** 
 210:Drivers/STM32F0xx_HAL_Driver/Src/stm32f0xx_hal_dma.c ****   /* Disable the selected DMA Channelx */
 211:Drivers/STM32F0xx_HAL_Driver/Src/stm32f0xx_hal_dma.c ****   hdma->Instance->CCR &= ~DMA_CCR_EN;
 212:Drivers/STM32F0xx_HAL_Driver/Src/stm32f0xx_hal_dma.c **** 
 213:Drivers/STM32F0xx_HAL_Driver/Src/stm32f0xx_hal_dma.c ****   /* Reset DMA Channel control register */
 214:Drivers/STM32F0xx_HAL_Driver/Src/stm32f0xx_hal_dma.c ****   hdma->Instance->CCR  = 0U;
 215:Drivers/STM32F0xx_HAL_Driver/Src/stm32f0xx_hal_dma.c **** 
 216:Drivers/STM32F0xx_HAL_Driver/Src/stm32f0xx_hal_dma.c ****   /* Reset DMA Channel Number of Data to Transfer register */
 217:Drivers/STM32F0xx_HAL_Driver/Src/stm32f0xx_hal_dma.c ****   hdma->Instance->CNDTR = 0U;
 218:Drivers/STM32F0xx_HAL_Driver/Src/stm32f0xx_hal_dma.c **** 
 219:Drivers/STM32F0xx_HAL_Driver/Src/stm32f0xx_hal_dma.c ****   /* Reset DMA Channel peripheral address register */
 220:Drivers/STM32F0xx_HAL_Driver/Src/stm32f0xx_hal_dma.c ****   hdma->Instance->CPAR  = 0U;
 221:Drivers/STM32F0xx_HAL_Driver/Src/stm32f0xx_hal_dma.c **** 
 222:Drivers/STM32F0xx_HAL_Driver/Src/stm32f0xx_hal_dma.c ****   /* Reset DMA Channel memory address register */
 223:Drivers/STM32F0xx_HAL_Driver/Src/stm32f0xx_hal_dma.c ****   hdma->Instance->CMAR = 0U;
 224:Drivers/STM32F0xx_HAL_Driver/Src/stm32f0xx_hal_dma.c **** 
 225:Drivers/STM32F0xx_HAL_Driver/Src/stm32f0xx_hal_dma.c ****   /* Get DMA Base Address */
 226:Drivers/STM32F0xx_HAL_Driver/Src/stm32f0xx_hal_dma.c ****   DMA_CalcBaseAndBitshift(hdma);
 227:Drivers/STM32F0xx_HAL_Driver/Src/stm32f0xx_hal_dma.c **** 
 228:Drivers/STM32F0xx_HAL_Driver/Src/stm32f0xx_hal_dma.c ****   /* Clear all flags */
 229:Drivers/STM32F0xx_HAL_Driver/Src/stm32f0xx_hal_dma.c ****   hdma->DmaBaseAddress->IFCR = DMA_FLAG_GL1 << hdma->ChannelIndex;
 230:Drivers/STM32F0xx_HAL_Driver/Src/stm32f0xx_hal_dma.c **** 
 231:Drivers/STM32F0xx_HAL_Driver/Src/stm32f0xx_hal_dma.c ****   /* Clean callbacks */
 232:Drivers/STM32F0xx_HAL_Driver/Src/stm32f0xx_hal_dma.c ****   hdma->XferCpltCallback = NULL;
 233:Drivers/STM32F0xx_HAL_Driver/Src/stm32f0xx_hal_dma.c ****   hdma->XferHalfCpltCallback = NULL;
 234:Drivers/STM32F0xx_HAL_Driver/Src/stm32f0xx_hal_dma.c ****   hdma->XferErrorCallback = NULL;
ARM GAS  C:\Users\maari\AppData\Local\Temp\ccCUEZrL.s 			page 7


 235:Drivers/STM32F0xx_HAL_Driver/Src/stm32f0xx_hal_dma.c ****   hdma->XferAbortCallback = NULL;
 236:Drivers/STM32F0xx_HAL_Driver/Src/stm32f0xx_hal_dma.c **** 
 237:Drivers/STM32F0xx_HAL_Driver/Src/stm32f0xx_hal_dma.c ****   /* Reset the error code */
 238:Drivers/STM32F0xx_HAL_Driver/Src/stm32f0xx_hal_dma.c ****   hdma->ErrorCode = HAL_DMA_ERROR_NONE;
 239:Drivers/STM32F0xx_HAL_Driver/Src/stm32f0xx_hal_dma.c **** 
 240:Drivers/STM32F0xx_HAL_Driver/Src/stm32f0xx_hal_dma.c ****   /* Reset the DMA state */
 241:Drivers/STM32F0xx_HAL_Driver/Src/stm32f0xx_hal_dma.c ****   hdma->State = HAL_DMA_STATE_RESET;
 242:Drivers/STM32F0xx_HAL_Driver/Src/stm32f0xx_hal_dma.c **** 
 243:Drivers/STM32F0xx_HAL_Driver/Src/stm32f0xx_hal_dma.c ****   /* Release Lock */
 244:Drivers/STM32F0xx_HAL_Driver/Src/stm32f0xx_hal_dma.c ****   __HAL_UNLOCK(hdma);
 245:Drivers/STM32F0xx_HAL_Driver/Src/stm32f0xx_hal_dma.c **** 
 246:Drivers/STM32F0xx_HAL_Driver/Src/stm32f0xx_hal_dma.c ****   return HAL_OK;
 247:Drivers/STM32F0xx_HAL_Driver/Src/stm32f0xx_hal_dma.c **** }
 248:Drivers/STM32F0xx_HAL_Driver/Src/stm32f0xx_hal_dma.c **** 
 249:Drivers/STM32F0xx_HAL_Driver/Src/stm32f0xx_hal_dma.c **** /**
 250:Drivers/STM32F0xx_HAL_Driver/Src/stm32f0xx_hal_dma.c ****   * @}
 251:Drivers/STM32F0xx_HAL_Driver/Src/stm32f0xx_hal_dma.c ****   */
 252:Drivers/STM32F0xx_HAL_Driver/Src/stm32f0xx_hal_dma.c **** 
 253:Drivers/STM32F0xx_HAL_Driver/Src/stm32f0xx_hal_dma.c **** /** @defgroup DMA_Exported_Functions_Group2 Input and Output operation functions
 254:Drivers/STM32F0xx_HAL_Driver/Src/stm32f0xx_hal_dma.c ****  *  @brief   I/O operation functions
 255:Drivers/STM32F0xx_HAL_Driver/Src/stm32f0xx_hal_dma.c ****  *
 256:Drivers/STM32F0xx_HAL_Driver/Src/stm32f0xx_hal_dma.c **** @verbatim
 257:Drivers/STM32F0xx_HAL_Driver/Src/stm32f0xx_hal_dma.c ****  ===============================================================================
 258:Drivers/STM32F0xx_HAL_Driver/Src/stm32f0xx_hal_dma.c ****                       #####  IO operation functions  #####
 259:Drivers/STM32F0xx_HAL_Driver/Src/stm32f0xx_hal_dma.c ****  ===============================================================================
 260:Drivers/STM32F0xx_HAL_Driver/Src/stm32f0xx_hal_dma.c ****     [..]  This section provides functions allowing to:
 261:Drivers/STM32F0xx_HAL_Driver/Src/stm32f0xx_hal_dma.c ****       (+) Configure the source, destination address and data length and Start DMA transfer
 262:Drivers/STM32F0xx_HAL_Driver/Src/stm32f0xx_hal_dma.c ****       (+) Configure the source, destination address and data length and
 263:Drivers/STM32F0xx_HAL_Driver/Src/stm32f0xx_hal_dma.c ****           Start DMA transfer with interrupt
 264:Drivers/STM32F0xx_HAL_Driver/Src/stm32f0xx_hal_dma.c ****       (+) Abort DMA transfer
 265:Drivers/STM32F0xx_HAL_Driver/Src/stm32f0xx_hal_dma.c ****       (+) Poll for transfer complete
 266:Drivers/STM32F0xx_HAL_Driver/Src/stm32f0xx_hal_dma.c ****       (+) Handle DMA interrupt request
 267:Drivers/STM32F0xx_HAL_Driver/Src/stm32f0xx_hal_dma.c **** 
 268:Drivers/STM32F0xx_HAL_Driver/Src/stm32f0xx_hal_dma.c **** @endverbatim
 269:Drivers/STM32F0xx_HAL_Driver/Src/stm32f0xx_hal_dma.c ****   * @{
 270:Drivers/STM32F0xx_HAL_Driver/Src/stm32f0xx_hal_dma.c ****   */
 271:Drivers/STM32F0xx_HAL_Driver/Src/stm32f0xx_hal_dma.c **** 
 272:Drivers/STM32F0xx_HAL_Driver/Src/stm32f0xx_hal_dma.c **** /**
 273:Drivers/STM32F0xx_HAL_Driver/Src/stm32f0xx_hal_dma.c ****   * @brief  Start the DMA Transfer.
 274:Drivers/STM32F0xx_HAL_Driver/Src/stm32f0xx_hal_dma.c ****   * @param  hdma pointer to a DMA_HandleTypeDef structure that contains
 275:Drivers/STM32F0xx_HAL_Driver/Src/stm32f0xx_hal_dma.c ****   *              the configuration information for the specified DMA Channel.
 276:Drivers/STM32F0xx_HAL_Driver/Src/stm32f0xx_hal_dma.c ****   * @param  SrcAddress The source memory Buffer address
 277:Drivers/STM32F0xx_HAL_Driver/Src/stm32f0xx_hal_dma.c ****   * @param  DstAddress The destination memory Buffer address
 278:Drivers/STM32F0xx_HAL_Driver/Src/stm32f0xx_hal_dma.c ****   * @param  DataLength The length of data to be transferred from source to destination
 279:Drivers/STM32F0xx_HAL_Driver/Src/stm32f0xx_hal_dma.c ****   * @retval HAL status
 280:Drivers/STM32F0xx_HAL_Driver/Src/stm32f0xx_hal_dma.c ****   */
 281:Drivers/STM32F0xx_HAL_Driver/Src/stm32f0xx_hal_dma.c **** HAL_StatusTypeDef HAL_DMA_Start(DMA_HandleTypeDef *hdma, uint32_t SrcAddress, uint32_t DstAddress, 
 282:Drivers/STM32F0xx_HAL_Driver/Src/stm32f0xx_hal_dma.c **** {
 283:Drivers/STM32F0xx_HAL_Driver/Src/stm32f0xx_hal_dma.c ****   HAL_StatusTypeDef status = HAL_OK;
 284:Drivers/STM32F0xx_HAL_Driver/Src/stm32f0xx_hal_dma.c **** 
 285:Drivers/STM32F0xx_HAL_Driver/Src/stm32f0xx_hal_dma.c ****   /* Check the parameters */
 286:Drivers/STM32F0xx_HAL_Driver/Src/stm32f0xx_hal_dma.c ****   assert_param(IS_DMA_BUFFER_SIZE(DataLength));
 287:Drivers/STM32F0xx_HAL_Driver/Src/stm32f0xx_hal_dma.c **** 
 288:Drivers/STM32F0xx_HAL_Driver/Src/stm32f0xx_hal_dma.c ****   /* Process locked */
 289:Drivers/STM32F0xx_HAL_Driver/Src/stm32f0xx_hal_dma.c ****   __HAL_LOCK(hdma);
 290:Drivers/STM32F0xx_HAL_Driver/Src/stm32f0xx_hal_dma.c **** 
 291:Drivers/STM32F0xx_HAL_Driver/Src/stm32f0xx_hal_dma.c ****   if (HAL_DMA_STATE_READY == hdma->State)
ARM GAS  C:\Users\maari\AppData\Local\Temp\ccCUEZrL.s 			page 8


 292:Drivers/STM32F0xx_HAL_Driver/Src/stm32f0xx_hal_dma.c ****   {
 293:Drivers/STM32F0xx_HAL_Driver/Src/stm32f0xx_hal_dma.c ****     /* Change DMA peripheral state */
 294:Drivers/STM32F0xx_HAL_Driver/Src/stm32f0xx_hal_dma.c ****     hdma->State = HAL_DMA_STATE_BUSY;
 295:Drivers/STM32F0xx_HAL_Driver/Src/stm32f0xx_hal_dma.c **** 
 296:Drivers/STM32F0xx_HAL_Driver/Src/stm32f0xx_hal_dma.c ****     hdma->ErrorCode = HAL_DMA_ERROR_NONE;
 297:Drivers/STM32F0xx_HAL_Driver/Src/stm32f0xx_hal_dma.c **** 
 298:Drivers/STM32F0xx_HAL_Driver/Src/stm32f0xx_hal_dma.c ****     /* Disable the peripheral */
 299:Drivers/STM32F0xx_HAL_Driver/Src/stm32f0xx_hal_dma.c ****     hdma->Instance->CCR &= ~DMA_CCR_EN;
 300:Drivers/STM32F0xx_HAL_Driver/Src/stm32f0xx_hal_dma.c **** 
 301:Drivers/STM32F0xx_HAL_Driver/Src/stm32f0xx_hal_dma.c ****     /* Configure the source, destination address and the data length */
 302:Drivers/STM32F0xx_HAL_Driver/Src/stm32f0xx_hal_dma.c ****     DMA_SetConfig(hdma, SrcAddress, DstAddress, DataLength);
 303:Drivers/STM32F0xx_HAL_Driver/Src/stm32f0xx_hal_dma.c **** 
 304:Drivers/STM32F0xx_HAL_Driver/Src/stm32f0xx_hal_dma.c ****     /* Enable the Peripheral */
 305:Drivers/STM32F0xx_HAL_Driver/Src/stm32f0xx_hal_dma.c ****     hdma->Instance->CCR |= DMA_CCR_EN;
 306:Drivers/STM32F0xx_HAL_Driver/Src/stm32f0xx_hal_dma.c ****   }
 307:Drivers/STM32F0xx_HAL_Driver/Src/stm32f0xx_hal_dma.c ****   else
 308:Drivers/STM32F0xx_HAL_Driver/Src/stm32f0xx_hal_dma.c ****   {
 309:Drivers/STM32F0xx_HAL_Driver/Src/stm32f0xx_hal_dma.c ****     /* Process Unlocked */
 310:Drivers/STM32F0xx_HAL_Driver/Src/stm32f0xx_hal_dma.c ****     __HAL_UNLOCK(hdma);
 311:Drivers/STM32F0xx_HAL_Driver/Src/stm32f0xx_hal_dma.c **** 
 312:Drivers/STM32F0xx_HAL_Driver/Src/stm32f0xx_hal_dma.c ****     /* Remain BUSY */
 313:Drivers/STM32F0xx_HAL_Driver/Src/stm32f0xx_hal_dma.c ****     status = HAL_BUSY;
 314:Drivers/STM32F0xx_HAL_Driver/Src/stm32f0xx_hal_dma.c ****   }
 315:Drivers/STM32F0xx_HAL_Driver/Src/stm32f0xx_hal_dma.c **** 
 316:Drivers/STM32F0xx_HAL_Driver/Src/stm32f0xx_hal_dma.c ****   return status;
 317:Drivers/STM32F0xx_HAL_Driver/Src/stm32f0xx_hal_dma.c **** }
 318:Drivers/STM32F0xx_HAL_Driver/Src/stm32f0xx_hal_dma.c **** 
 319:Drivers/STM32F0xx_HAL_Driver/Src/stm32f0xx_hal_dma.c **** /**
 320:Drivers/STM32F0xx_HAL_Driver/Src/stm32f0xx_hal_dma.c ****   * @brief  Start the DMA Transfer with interrupt enabled.
 321:Drivers/STM32F0xx_HAL_Driver/Src/stm32f0xx_hal_dma.c ****   * @param  hdma       pointer to a DMA_HandleTypeDef structure that contains
 322:Drivers/STM32F0xx_HAL_Driver/Src/stm32f0xx_hal_dma.c ****   *                     the configuration information for the specified DMA Channel.
 323:Drivers/STM32F0xx_HAL_Driver/Src/stm32f0xx_hal_dma.c ****   * @param  SrcAddress The source memory Buffer address
 324:Drivers/STM32F0xx_HAL_Driver/Src/stm32f0xx_hal_dma.c ****   * @param  DstAddress The destination memory Buffer address
 325:Drivers/STM32F0xx_HAL_Driver/Src/stm32f0xx_hal_dma.c ****   * @param  DataLength The length of data to be transferred from source to destination
 326:Drivers/STM32F0xx_HAL_Driver/Src/stm32f0xx_hal_dma.c ****   * @retval HAL status
 327:Drivers/STM32F0xx_HAL_Driver/Src/stm32f0xx_hal_dma.c ****   */
 328:Drivers/STM32F0xx_HAL_Driver/Src/stm32f0xx_hal_dma.c **** HAL_StatusTypeDef HAL_DMA_Start_IT(DMA_HandleTypeDef *hdma, uint32_t SrcAddress, uint32_t DstAddres
 329:Drivers/STM32F0xx_HAL_Driver/Src/stm32f0xx_hal_dma.c **** {
 330:Drivers/STM32F0xx_HAL_Driver/Src/stm32f0xx_hal_dma.c ****   HAL_StatusTypeDef status = HAL_OK;
 331:Drivers/STM32F0xx_HAL_Driver/Src/stm32f0xx_hal_dma.c **** 
 332:Drivers/STM32F0xx_HAL_Driver/Src/stm32f0xx_hal_dma.c ****   /* Check the parameters */
 333:Drivers/STM32F0xx_HAL_Driver/Src/stm32f0xx_hal_dma.c ****   assert_param(IS_DMA_BUFFER_SIZE(DataLength));
 334:Drivers/STM32F0xx_HAL_Driver/Src/stm32f0xx_hal_dma.c **** 
 335:Drivers/STM32F0xx_HAL_Driver/Src/stm32f0xx_hal_dma.c ****   /* Process locked */
 336:Drivers/STM32F0xx_HAL_Driver/Src/stm32f0xx_hal_dma.c ****   __HAL_LOCK(hdma);
 337:Drivers/STM32F0xx_HAL_Driver/Src/stm32f0xx_hal_dma.c **** 
 338:Drivers/STM32F0xx_HAL_Driver/Src/stm32f0xx_hal_dma.c ****   if (HAL_DMA_STATE_READY == hdma->State)
 339:Drivers/STM32F0xx_HAL_Driver/Src/stm32f0xx_hal_dma.c ****   {
 340:Drivers/STM32F0xx_HAL_Driver/Src/stm32f0xx_hal_dma.c ****     /* Change DMA peripheral state */
 341:Drivers/STM32F0xx_HAL_Driver/Src/stm32f0xx_hal_dma.c ****     hdma->State = HAL_DMA_STATE_BUSY;
 342:Drivers/STM32F0xx_HAL_Driver/Src/stm32f0xx_hal_dma.c **** 
 343:Drivers/STM32F0xx_HAL_Driver/Src/stm32f0xx_hal_dma.c ****     hdma->ErrorCode = HAL_DMA_ERROR_NONE;
 344:Drivers/STM32F0xx_HAL_Driver/Src/stm32f0xx_hal_dma.c **** 
 345:Drivers/STM32F0xx_HAL_Driver/Src/stm32f0xx_hal_dma.c ****     /* Disable the peripheral */
 346:Drivers/STM32F0xx_HAL_Driver/Src/stm32f0xx_hal_dma.c ****     hdma->Instance->CCR &= ~DMA_CCR_EN;
 347:Drivers/STM32F0xx_HAL_Driver/Src/stm32f0xx_hal_dma.c **** 
 348:Drivers/STM32F0xx_HAL_Driver/Src/stm32f0xx_hal_dma.c ****     /* Configure the source, destination address and the data length */
ARM GAS  C:\Users\maari\AppData\Local\Temp\ccCUEZrL.s 			page 9


 349:Drivers/STM32F0xx_HAL_Driver/Src/stm32f0xx_hal_dma.c ****     DMA_SetConfig(hdma, SrcAddress, DstAddress, DataLength);
 350:Drivers/STM32F0xx_HAL_Driver/Src/stm32f0xx_hal_dma.c **** 
 351:Drivers/STM32F0xx_HAL_Driver/Src/stm32f0xx_hal_dma.c ****     /* Enable the transfer complete, & transfer error interrupts */
 352:Drivers/STM32F0xx_HAL_Driver/Src/stm32f0xx_hal_dma.c ****     /* Half transfer interrupt is optional: enable it only if associated callback is available */
 353:Drivers/STM32F0xx_HAL_Driver/Src/stm32f0xx_hal_dma.c ****     if (NULL != hdma->XferHalfCpltCallback)
 354:Drivers/STM32F0xx_HAL_Driver/Src/stm32f0xx_hal_dma.c ****     {
 355:Drivers/STM32F0xx_HAL_Driver/Src/stm32f0xx_hal_dma.c ****       hdma->Instance->CCR |= (DMA_IT_TC | DMA_IT_HT | DMA_IT_TE);
 356:Drivers/STM32F0xx_HAL_Driver/Src/stm32f0xx_hal_dma.c ****     }
 357:Drivers/STM32F0xx_HAL_Driver/Src/stm32f0xx_hal_dma.c ****     else
 358:Drivers/STM32F0xx_HAL_Driver/Src/stm32f0xx_hal_dma.c ****     {
 359:Drivers/STM32F0xx_HAL_Driver/Src/stm32f0xx_hal_dma.c ****       hdma->Instance->CCR |= (DMA_IT_TC | DMA_IT_TE);
 360:Drivers/STM32F0xx_HAL_Driver/Src/stm32f0xx_hal_dma.c ****       hdma->Instance->CCR &= ~DMA_IT_HT;
 361:Drivers/STM32F0xx_HAL_Driver/Src/stm32f0xx_hal_dma.c ****     }
 362:Drivers/STM32F0xx_HAL_Driver/Src/stm32f0xx_hal_dma.c **** 
 363:Drivers/STM32F0xx_HAL_Driver/Src/stm32f0xx_hal_dma.c ****     /* Enable the Peripheral */
 364:Drivers/STM32F0xx_HAL_Driver/Src/stm32f0xx_hal_dma.c ****     hdma->Instance->CCR |= DMA_CCR_EN;
 365:Drivers/STM32F0xx_HAL_Driver/Src/stm32f0xx_hal_dma.c ****   }
 366:Drivers/STM32F0xx_HAL_Driver/Src/stm32f0xx_hal_dma.c ****   else
 367:Drivers/STM32F0xx_HAL_Driver/Src/stm32f0xx_hal_dma.c ****   {
 368:Drivers/STM32F0xx_HAL_Driver/Src/stm32f0xx_hal_dma.c ****     /* Process Unlocked */
 369:Drivers/STM32F0xx_HAL_Driver/Src/stm32f0xx_hal_dma.c ****     __HAL_UNLOCK(hdma);
 370:Drivers/STM32F0xx_HAL_Driver/Src/stm32f0xx_hal_dma.c **** 
 371:Drivers/STM32F0xx_HAL_Driver/Src/stm32f0xx_hal_dma.c ****     /* Remain BUSY */
 372:Drivers/STM32F0xx_HAL_Driver/Src/stm32f0xx_hal_dma.c ****     status = HAL_BUSY;
 373:Drivers/STM32F0xx_HAL_Driver/Src/stm32f0xx_hal_dma.c ****   }
 374:Drivers/STM32F0xx_HAL_Driver/Src/stm32f0xx_hal_dma.c **** 
 375:Drivers/STM32F0xx_HAL_Driver/Src/stm32f0xx_hal_dma.c ****   return status;
 376:Drivers/STM32F0xx_HAL_Driver/Src/stm32f0xx_hal_dma.c **** }
 377:Drivers/STM32F0xx_HAL_Driver/Src/stm32f0xx_hal_dma.c **** 
 378:Drivers/STM32F0xx_HAL_Driver/Src/stm32f0xx_hal_dma.c **** /**
 379:Drivers/STM32F0xx_HAL_Driver/Src/stm32f0xx_hal_dma.c ****   * @brief  Abort the DMA Transfer.
 380:Drivers/STM32F0xx_HAL_Driver/Src/stm32f0xx_hal_dma.c ****   * @param  hdma  pointer to a DMA_HandleTypeDef structure that contains
 381:Drivers/STM32F0xx_HAL_Driver/Src/stm32f0xx_hal_dma.c ****   *               the configuration information for the specified DMA Channel.
 382:Drivers/STM32F0xx_HAL_Driver/Src/stm32f0xx_hal_dma.c ****   * @retval HAL status
 383:Drivers/STM32F0xx_HAL_Driver/Src/stm32f0xx_hal_dma.c ****   */
 384:Drivers/STM32F0xx_HAL_Driver/Src/stm32f0xx_hal_dma.c **** HAL_StatusTypeDef HAL_DMA_Abort(DMA_HandleTypeDef *hdma)
 385:Drivers/STM32F0xx_HAL_Driver/Src/stm32f0xx_hal_dma.c **** {
 386:Drivers/STM32F0xx_HAL_Driver/Src/stm32f0xx_hal_dma.c ****   if (hdma->State != HAL_DMA_STATE_BUSY)
 387:Drivers/STM32F0xx_HAL_Driver/Src/stm32f0xx_hal_dma.c ****   {
 388:Drivers/STM32F0xx_HAL_Driver/Src/stm32f0xx_hal_dma.c ****     /* no transfer ongoing */
 389:Drivers/STM32F0xx_HAL_Driver/Src/stm32f0xx_hal_dma.c ****     hdma->ErrorCode = HAL_DMA_ERROR_NO_XFER;
 390:Drivers/STM32F0xx_HAL_Driver/Src/stm32f0xx_hal_dma.c **** 
 391:Drivers/STM32F0xx_HAL_Driver/Src/stm32f0xx_hal_dma.c ****     /* Process Unlocked */
 392:Drivers/STM32F0xx_HAL_Driver/Src/stm32f0xx_hal_dma.c ****     __HAL_UNLOCK(hdma);
 393:Drivers/STM32F0xx_HAL_Driver/Src/stm32f0xx_hal_dma.c **** 
 394:Drivers/STM32F0xx_HAL_Driver/Src/stm32f0xx_hal_dma.c ****     return HAL_ERROR;
 395:Drivers/STM32F0xx_HAL_Driver/Src/stm32f0xx_hal_dma.c ****   }
 396:Drivers/STM32F0xx_HAL_Driver/Src/stm32f0xx_hal_dma.c ****   else
 397:Drivers/STM32F0xx_HAL_Driver/Src/stm32f0xx_hal_dma.c ****   {
 398:Drivers/STM32F0xx_HAL_Driver/Src/stm32f0xx_hal_dma.c ****     /* Disable DMA IT */
 399:Drivers/STM32F0xx_HAL_Driver/Src/stm32f0xx_hal_dma.c ****     hdma->Instance->CCR &= ~(DMA_IT_TC | DMA_IT_HT | DMA_IT_TE);
 400:Drivers/STM32F0xx_HAL_Driver/Src/stm32f0xx_hal_dma.c **** 
 401:Drivers/STM32F0xx_HAL_Driver/Src/stm32f0xx_hal_dma.c ****     /* Disable the channel */
 402:Drivers/STM32F0xx_HAL_Driver/Src/stm32f0xx_hal_dma.c ****     hdma->Instance->CCR &= ~DMA_CCR_EN;
 403:Drivers/STM32F0xx_HAL_Driver/Src/stm32f0xx_hal_dma.c **** 
 404:Drivers/STM32F0xx_HAL_Driver/Src/stm32f0xx_hal_dma.c ****     /* Clear all flags */
 405:Drivers/STM32F0xx_HAL_Driver/Src/stm32f0xx_hal_dma.c ****     hdma->DmaBaseAddress->IFCR = (DMA_FLAG_GL1 << hdma->ChannelIndex);
ARM GAS  C:\Users\maari\AppData\Local\Temp\ccCUEZrL.s 			page 10


 406:Drivers/STM32F0xx_HAL_Driver/Src/stm32f0xx_hal_dma.c ****   }
 407:Drivers/STM32F0xx_HAL_Driver/Src/stm32f0xx_hal_dma.c ****   /* Change the DMA state*/
 408:Drivers/STM32F0xx_HAL_Driver/Src/stm32f0xx_hal_dma.c ****   hdma->State = HAL_DMA_STATE_READY;
 409:Drivers/STM32F0xx_HAL_Driver/Src/stm32f0xx_hal_dma.c **** 
 410:Drivers/STM32F0xx_HAL_Driver/Src/stm32f0xx_hal_dma.c ****   /* Process Unlocked */
 411:Drivers/STM32F0xx_HAL_Driver/Src/stm32f0xx_hal_dma.c ****   __HAL_UNLOCK(hdma);
 412:Drivers/STM32F0xx_HAL_Driver/Src/stm32f0xx_hal_dma.c **** 
 413:Drivers/STM32F0xx_HAL_Driver/Src/stm32f0xx_hal_dma.c ****   return HAL_OK;
 414:Drivers/STM32F0xx_HAL_Driver/Src/stm32f0xx_hal_dma.c **** }
 415:Drivers/STM32F0xx_HAL_Driver/Src/stm32f0xx_hal_dma.c **** 
 416:Drivers/STM32F0xx_HAL_Driver/Src/stm32f0xx_hal_dma.c **** /**
 417:Drivers/STM32F0xx_HAL_Driver/Src/stm32f0xx_hal_dma.c ****   * @brief  Abort the DMA Transfer in Interrupt mode.
 418:Drivers/STM32F0xx_HAL_Driver/Src/stm32f0xx_hal_dma.c ****   * @param  hdma  pointer to a DMA_HandleTypeDef structure that contains
 419:Drivers/STM32F0xx_HAL_Driver/Src/stm32f0xx_hal_dma.c ****   *               the configuration information for the specified DMA Stream.
 420:Drivers/STM32F0xx_HAL_Driver/Src/stm32f0xx_hal_dma.c ****   * @retval HAL status
 421:Drivers/STM32F0xx_HAL_Driver/Src/stm32f0xx_hal_dma.c ****   */
 422:Drivers/STM32F0xx_HAL_Driver/Src/stm32f0xx_hal_dma.c **** HAL_StatusTypeDef HAL_DMA_Abort_IT(DMA_HandleTypeDef *hdma)
 423:Drivers/STM32F0xx_HAL_Driver/Src/stm32f0xx_hal_dma.c **** {
 424:Drivers/STM32F0xx_HAL_Driver/Src/stm32f0xx_hal_dma.c ****   HAL_StatusTypeDef status = HAL_OK;
 425:Drivers/STM32F0xx_HAL_Driver/Src/stm32f0xx_hal_dma.c **** 
 426:Drivers/STM32F0xx_HAL_Driver/Src/stm32f0xx_hal_dma.c ****   if (HAL_DMA_STATE_BUSY != hdma->State)
 427:Drivers/STM32F0xx_HAL_Driver/Src/stm32f0xx_hal_dma.c ****   {
 428:Drivers/STM32F0xx_HAL_Driver/Src/stm32f0xx_hal_dma.c ****     /* no transfer ongoing */
 429:Drivers/STM32F0xx_HAL_Driver/Src/stm32f0xx_hal_dma.c ****     hdma->ErrorCode = HAL_DMA_ERROR_NO_XFER;
 430:Drivers/STM32F0xx_HAL_Driver/Src/stm32f0xx_hal_dma.c **** 
 431:Drivers/STM32F0xx_HAL_Driver/Src/stm32f0xx_hal_dma.c ****     status = HAL_ERROR;
 432:Drivers/STM32F0xx_HAL_Driver/Src/stm32f0xx_hal_dma.c ****   }
 433:Drivers/STM32F0xx_HAL_Driver/Src/stm32f0xx_hal_dma.c ****   else
 434:Drivers/STM32F0xx_HAL_Driver/Src/stm32f0xx_hal_dma.c ****   {
 435:Drivers/STM32F0xx_HAL_Driver/Src/stm32f0xx_hal_dma.c **** 
 436:Drivers/STM32F0xx_HAL_Driver/Src/stm32f0xx_hal_dma.c ****     /* Disable DMA IT */
 437:Drivers/STM32F0xx_HAL_Driver/Src/stm32f0xx_hal_dma.c ****     hdma->Instance->CCR &= ~(DMA_IT_TC | DMA_IT_HT | DMA_IT_TE);
 438:Drivers/STM32F0xx_HAL_Driver/Src/stm32f0xx_hal_dma.c **** 
 439:Drivers/STM32F0xx_HAL_Driver/Src/stm32f0xx_hal_dma.c ****     /* Disable the channel */
 440:Drivers/STM32F0xx_HAL_Driver/Src/stm32f0xx_hal_dma.c ****     hdma->Instance->CCR &= ~DMA_CCR_EN;
 441:Drivers/STM32F0xx_HAL_Driver/Src/stm32f0xx_hal_dma.c **** 
 442:Drivers/STM32F0xx_HAL_Driver/Src/stm32f0xx_hal_dma.c ****     /* Clear all flags */
 443:Drivers/STM32F0xx_HAL_Driver/Src/stm32f0xx_hal_dma.c ****     hdma->DmaBaseAddress->IFCR = DMA_FLAG_GL1 << hdma->ChannelIndex;
 444:Drivers/STM32F0xx_HAL_Driver/Src/stm32f0xx_hal_dma.c **** 
 445:Drivers/STM32F0xx_HAL_Driver/Src/stm32f0xx_hal_dma.c ****     /* Change the DMA state */
 446:Drivers/STM32F0xx_HAL_Driver/Src/stm32f0xx_hal_dma.c ****     hdma->State = HAL_DMA_STATE_READY;
 447:Drivers/STM32F0xx_HAL_Driver/Src/stm32f0xx_hal_dma.c **** 
 448:Drivers/STM32F0xx_HAL_Driver/Src/stm32f0xx_hal_dma.c ****     /* Process Unlocked */
 449:Drivers/STM32F0xx_HAL_Driver/Src/stm32f0xx_hal_dma.c ****     __HAL_UNLOCK(hdma);
 450:Drivers/STM32F0xx_HAL_Driver/Src/stm32f0xx_hal_dma.c **** 
 451:Drivers/STM32F0xx_HAL_Driver/Src/stm32f0xx_hal_dma.c ****     /* Call User Abort callback */
 452:Drivers/STM32F0xx_HAL_Driver/Src/stm32f0xx_hal_dma.c ****     if (hdma->XferAbortCallback != NULL)
 453:Drivers/STM32F0xx_HAL_Driver/Src/stm32f0xx_hal_dma.c ****     {
 454:Drivers/STM32F0xx_HAL_Driver/Src/stm32f0xx_hal_dma.c ****       hdma->XferAbortCallback(hdma);
 455:Drivers/STM32F0xx_HAL_Driver/Src/stm32f0xx_hal_dma.c ****     }
 456:Drivers/STM32F0xx_HAL_Driver/Src/stm32f0xx_hal_dma.c ****   }
 457:Drivers/STM32F0xx_HAL_Driver/Src/stm32f0xx_hal_dma.c ****   return status;
 458:Drivers/STM32F0xx_HAL_Driver/Src/stm32f0xx_hal_dma.c **** }
 459:Drivers/STM32F0xx_HAL_Driver/Src/stm32f0xx_hal_dma.c **** 
 460:Drivers/STM32F0xx_HAL_Driver/Src/stm32f0xx_hal_dma.c **** /**
 461:Drivers/STM32F0xx_HAL_Driver/Src/stm32f0xx_hal_dma.c ****   * @brief  Polling for transfer complete.
 462:Drivers/STM32F0xx_HAL_Driver/Src/stm32f0xx_hal_dma.c ****   * @param  hdma    pointer to a DMA_HandleTypeDef structure that contains
ARM GAS  C:\Users\maari\AppData\Local\Temp\ccCUEZrL.s 			page 11


 463:Drivers/STM32F0xx_HAL_Driver/Src/stm32f0xx_hal_dma.c ****   *                  the configuration information for the specified DMA Channel.
 464:Drivers/STM32F0xx_HAL_Driver/Src/stm32f0xx_hal_dma.c ****   * @param  CompleteLevel Specifies the DMA level complete.
 465:Drivers/STM32F0xx_HAL_Driver/Src/stm32f0xx_hal_dma.c ****   * @param  Timeout       Timeout duration.
 466:Drivers/STM32F0xx_HAL_Driver/Src/stm32f0xx_hal_dma.c ****   * @retval HAL status
 467:Drivers/STM32F0xx_HAL_Driver/Src/stm32f0xx_hal_dma.c ****   */
 468:Drivers/STM32F0xx_HAL_Driver/Src/stm32f0xx_hal_dma.c **** HAL_StatusTypeDef HAL_DMA_PollForTransfer(DMA_HandleTypeDef *hdma, uint32_t CompleteLevel, uint32_t
 469:Drivers/STM32F0xx_HAL_Driver/Src/stm32f0xx_hal_dma.c **** {
 470:Drivers/STM32F0xx_HAL_Driver/Src/stm32f0xx_hal_dma.c ****   uint32_t temp;
 471:Drivers/STM32F0xx_HAL_Driver/Src/stm32f0xx_hal_dma.c ****   uint32_t tickstart = 0U;
 472:Drivers/STM32F0xx_HAL_Driver/Src/stm32f0xx_hal_dma.c **** 
 473:Drivers/STM32F0xx_HAL_Driver/Src/stm32f0xx_hal_dma.c ****   if (HAL_DMA_STATE_BUSY != hdma->State)
 474:Drivers/STM32F0xx_HAL_Driver/Src/stm32f0xx_hal_dma.c ****   {
 475:Drivers/STM32F0xx_HAL_Driver/Src/stm32f0xx_hal_dma.c ****     /* no transfer ongoing */
 476:Drivers/STM32F0xx_HAL_Driver/Src/stm32f0xx_hal_dma.c ****     hdma->ErrorCode = HAL_DMA_ERROR_NO_XFER;
 477:Drivers/STM32F0xx_HAL_Driver/Src/stm32f0xx_hal_dma.c ****     __HAL_UNLOCK(hdma);
 478:Drivers/STM32F0xx_HAL_Driver/Src/stm32f0xx_hal_dma.c ****     return HAL_ERROR;
 479:Drivers/STM32F0xx_HAL_Driver/Src/stm32f0xx_hal_dma.c ****   }
 480:Drivers/STM32F0xx_HAL_Driver/Src/stm32f0xx_hal_dma.c **** 
 481:Drivers/STM32F0xx_HAL_Driver/Src/stm32f0xx_hal_dma.c ****   /* Polling mode not supported in circular mode */
 482:Drivers/STM32F0xx_HAL_Driver/Src/stm32f0xx_hal_dma.c ****   if (RESET != (hdma->Instance->CCR & DMA_CCR_CIRC))
 483:Drivers/STM32F0xx_HAL_Driver/Src/stm32f0xx_hal_dma.c ****   {
 484:Drivers/STM32F0xx_HAL_Driver/Src/stm32f0xx_hal_dma.c ****     hdma->ErrorCode = HAL_DMA_ERROR_NOT_SUPPORTED;
 485:Drivers/STM32F0xx_HAL_Driver/Src/stm32f0xx_hal_dma.c ****     return HAL_ERROR;
 486:Drivers/STM32F0xx_HAL_Driver/Src/stm32f0xx_hal_dma.c ****   }
 487:Drivers/STM32F0xx_HAL_Driver/Src/stm32f0xx_hal_dma.c **** 
 488:Drivers/STM32F0xx_HAL_Driver/Src/stm32f0xx_hal_dma.c ****   /* Get the level transfer complete flag */
 489:Drivers/STM32F0xx_HAL_Driver/Src/stm32f0xx_hal_dma.c ****   if (HAL_DMA_FULL_TRANSFER == CompleteLevel)
 490:Drivers/STM32F0xx_HAL_Driver/Src/stm32f0xx_hal_dma.c ****   {
 491:Drivers/STM32F0xx_HAL_Driver/Src/stm32f0xx_hal_dma.c ****     /* Transfer Complete flag */
 492:Drivers/STM32F0xx_HAL_Driver/Src/stm32f0xx_hal_dma.c ****     temp = DMA_FLAG_TC1 << hdma->ChannelIndex;
 493:Drivers/STM32F0xx_HAL_Driver/Src/stm32f0xx_hal_dma.c ****   }
 494:Drivers/STM32F0xx_HAL_Driver/Src/stm32f0xx_hal_dma.c ****   else
 495:Drivers/STM32F0xx_HAL_Driver/Src/stm32f0xx_hal_dma.c ****   {
 496:Drivers/STM32F0xx_HAL_Driver/Src/stm32f0xx_hal_dma.c ****     /* Half Transfer Complete flag */
 497:Drivers/STM32F0xx_HAL_Driver/Src/stm32f0xx_hal_dma.c ****     temp = DMA_FLAG_HT1 << hdma->ChannelIndex;
 498:Drivers/STM32F0xx_HAL_Driver/Src/stm32f0xx_hal_dma.c ****   }
 499:Drivers/STM32F0xx_HAL_Driver/Src/stm32f0xx_hal_dma.c **** 
 500:Drivers/STM32F0xx_HAL_Driver/Src/stm32f0xx_hal_dma.c ****   /* Get tick */
 501:Drivers/STM32F0xx_HAL_Driver/Src/stm32f0xx_hal_dma.c ****   tickstart = HAL_GetTick();
 502:Drivers/STM32F0xx_HAL_Driver/Src/stm32f0xx_hal_dma.c **** 
 503:Drivers/STM32F0xx_HAL_Driver/Src/stm32f0xx_hal_dma.c ****   while (RESET == (hdma->DmaBaseAddress->ISR & temp))
 504:Drivers/STM32F0xx_HAL_Driver/Src/stm32f0xx_hal_dma.c ****   {
 505:Drivers/STM32F0xx_HAL_Driver/Src/stm32f0xx_hal_dma.c ****     if (RESET != (hdma->DmaBaseAddress->ISR & (DMA_FLAG_TE1 << hdma->ChannelIndex)))
 506:Drivers/STM32F0xx_HAL_Driver/Src/stm32f0xx_hal_dma.c ****     {
 507:Drivers/STM32F0xx_HAL_Driver/Src/stm32f0xx_hal_dma.c ****       /* When a DMA transfer error occurs */
 508:Drivers/STM32F0xx_HAL_Driver/Src/stm32f0xx_hal_dma.c ****       /* A hardware clear of its EN bits is performed */
 509:Drivers/STM32F0xx_HAL_Driver/Src/stm32f0xx_hal_dma.c ****       /* Clear all flags */
 510:Drivers/STM32F0xx_HAL_Driver/Src/stm32f0xx_hal_dma.c ****       hdma->DmaBaseAddress->IFCR = DMA_FLAG_GL1 << hdma->ChannelIndex;
 511:Drivers/STM32F0xx_HAL_Driver/Src/stm32f0xx_hal_dma.c **** 
 512:Drivers/STM32F0xx_HAL_Driver/Src/stm32f0xx_hal_dma.c ****       /* Update error code */
 513:Drivers/STM32F0xx_HAL_Driver/Src/stm32f0xx_hal_dma.c ****       hdma->ErrorCode = HAL_DMA_ERROR_TE;
 514:Drivers/STM32F0xx_HAL_Driver/Src/stm32f0xx_hal_dma.c **** 
 515:Drivers/STM32F0xx_HAL_Driver/Src/stm32f0xx_hal_dma.c ****       /* Change the DMA state */
 516:Drivers/STM32F0xx_HAL_Driver/Src/stm32f0xx_hal_dma.c ****       hdma->State = HAL_DMA_STATE_READY;
 517:Drivers/STM32F0xx_HAL_Driver/Src/stm32f0xx_hal_dma.c **** 
 518:Drivers/STM32F0xx_HAL_Driver/Src/stm32f0xx_hal_dma.c ****       /* Process Unlocked */
 519:Drivers/STM32F0xx_HAL_Driver/Src/stm32f0xx_hal_dma.c ****       __HAL_UNLOCK(hdma);
ARM GAS  C:\Users\maari\AppData\Local\Temp\ccCUEZrL.s 			page 12


 520:Drivers/STM32F0xx_HAL_Driver/Src/stm32f0xx_hal_dma.c **** 
 521:Drivers/STM32F0xx_HAL_Driver/Src/stm32f0xx_hal_dma.c ****       return HAL_ERROR;
 522:Drivers/STM32F0xx_HAL_Driver/Src/stm32f0xx_hal_dma.c ****     }
 523:Drivers/STM32F0xx_HAL_Driver/Src/stm32f0xx_hal_dma.c ****     /* Check for the Timeout */
 524:Drivers/STM32F0xx_HAL_Driver/Src/stm32f0xx_hal_dma.c ****     if (Timeout != HAL_MAX_DELAY)
 525:Drivers/STM32F0xx_HAL_Driver/Src/stm32f0xx_hal_dma.c ****     {
 526:Drivers/STM32F0xx_HAL_Driver/Src/stm32f0xx_hal_dma.c ****       if ((Timeout == 0U) || ((HAL_GetTick() - tickstart) > Timeout))
 527:Drivers/STM32F0xx_HAL_Driver/Src/stm32f0xx_hal_dma.c ****       {
 528:Drivers/STM32F0xx_HAL_Driver/Src/stm32f0xx_hal_dma.c ****         /* Update error code */
 529:Drivers/STM32F0xx_HAL_Driver/Src/stm32f0xx_hal_dma.c ****         hdma->ErrorCode = HAL_DMA_ERROR_TIMEOUT;
 530:Drivers/STM32F0xx_HAL_Driver/Src/stm32f0xx_hal_dma.c **** 
 531:Drivers/STM32F0xx_HAL_Driver/Src/stm32f0xx_hal_dma.c ****         /* Change the DMA state */
 532:Drivers/STM32F0xx_HAL_Driver/Src/stm32f0xx_hal_dma.c ****         hdma->State = HAL_DMA_STATE_READY;
 533:Drivers/STM32F0xx_HAL_Driver/Src/stm32f0xx_hal_dma.c **** 
 534:Drivers/STM32F0xx_HAL_Driver/Src/stm32f0xx_hal_dma.c ****         /* Process Unlocked */
 535:Drivers/STM32F0xx_HAL_Driver/Src/stm32f0xx_hal_dma.c ****         __HAL_UNLOCK(hdma);
 536:Drivers/STM32F0xx_HAL_Driver/Src/stm32f0xx_hal_dma.c **** 
 537:Drivers/STM32F0xx_HAL_Driver/Src/stm32f0xx_hal_dma.c ****         return HAL_ERROR;
 538:Drivers/STM32F0xx_HAL_Driver/Src/stm32f0xx_hal_dma.c ****       }
 539:Drivers/STM32F0xx_HAL_Driver/Src/stm32f0xx_hal_dma.c ****     }
 540:Drivers/STM32F0xx_HAL_Driver/Src/stm32f0xx_hal_dma.c ****   }
 541:Drivers/STM32F0xx_HAL_Driver/Src/stm32f0xx_hal_dma.c **** 
 542:Drivers/STM32F0xx_HAL_Driver/Src/stm32f0xx_hal_dma.c ****   if (HAL_DMA_FULL_TRANSFER == CompleteLevel)
 543:Drivers/STM32F0xx_HAL_Driver/Src/stm32f0xx_hal_dma.c ****   {
 544:Drivers/STM32F0xx_HAL_Driver/Src/stm32f0xx_hal_dma.c ****     /* Clear the transfer complete flag */
 545:Drivers/STM32F0xx_HAL_Driver/Src/stm32f0xx_hal_dma.c ****     hdma->DmaBaseAddress->IFCR = DMA_FLAG_TC1 << hdma->ChannelIndex;
 546:Drivers/STM32F0xx_HAL_Driver/Src/stm32f0xx_hal_dma.c **** 
 547:Drivers/STM32F0xx_HAL_Driver/Src/stm32f0xx_hal_dma.c ****     /* The selected Channelx EN bit is cleared (DMA is disabled and
 548:Drivers/STM32F0xx_HAL_Driver/Src/stm32f0xx_hal_dma.c ****     all transfers are complete) */
 549:Drivers/STM32F0xx_HAL_Driver/Src/stm32f0xx_hal_dma.c ****     hdma->State = HAL_DMA_STATE_READY;
 550:Drivers/STM32F0xx_HAL_Driver/Src/stm32f0xx_hal_dma.c ****   }
 551:Drivers/STM32F0xx_HAL_Driver/Src/stm32f0xx_hal_dma.c ****   else
 552:Drivers/STM32F0xx_HAL_Driver/Src/stm32f0xx_hal_dma.c ****   {
 553:Drivers/STM32F0xx_HAL_Driver/Src/stm32f0xx_hal_dma.c ****     /* Clear the half transfer complete flag */
 554:Drivers/STM32F0xx_HAL_Driver/Src/stm32f0xx_hal_dma.c ****     hdma->DmaBaseAddress->IFCR = DMA_FLAG_HT1 << hdma->ChannelIndex;
 555:Drivers/STM32F0xx_HAL_Driver/Src/stm32f0xx_hal_dma.c ****   }
 556:Drivers/STM32F0xx_HAL_Driver/Src/stm32f0xx_hal_dma.c **** 
 557:Drivers/STM32F0xx_HAL_Driver/Src/stm32f0xx_hal_dma.c ****   /* Process unlocked */
 558:Drivers/STM32F0xx_HAL_Driver/Src/stm32f0xx_hal_dma.c ****   __HAL_UNLOCK(hdma);
 559:Drivers/STM32F0xx_HAL_Driver/Src/stm32f0xx_hal_dma.c **** 
 560:Drivers/STM32F0xx_HAL_Driver/Src/stm32f0xx_hal_dma.c ****   return HAL_OK;
 561:Drivers/STM32F0xx_HAL_Driver/Src/stm32f0xx_hal_dma.c **** }
 562:Drivers/STM32F0xx_HAL_Driver/Src/stm32f0xx_hal_dma.c **** 
 563:Drivers/STM32F0xx_HAL_Driver/Src/stm32f0xx_hal_dma.c **** /**
 564:Drivers/STM32F0xx_HAL_Driver/Src/stm32f0xx_hal_dma.c ****   * @brief  Handle DMA interrupt request.
 565:Drivers/STM32F0xx_HAL_Driver/Src/stm32f0xx_hal_dma.c ****   * @param  hdma pointer to a DMA_HandleTypeDef structure that contains
 566:Drivers/STM32F0xx_HAL_Driver/Src/stm32f0xx_hal_dma.c ****   *               the configuration information for the specified DMA Channel.
 567:Drivers/STM32F0xx_HAL_Driver/Src/stm32f0xx_hal_dma.c ****   * @retval None
 568:Drivers/STM32F0xx_HAL_Driver/Src/stm32f0xx_hal_dma.c ****   */
 569:Drivers/STM32F0xx_HAL_Driver/Src/stm32f0xx_hal_dma.c **** void HAL_DMA_IRQHandler(DMA_HandleTypeDef *hdma)
 570:Drivers/STM32F0xx_HAL_Driver/Src/stm32f0xx_hal_dma.c **** {
 571:Drivers/STM32F0xx_HAL_Driver/Src/stm32f0xx_hal_dma.c ****   uint32_t flag_it = hdma->DmaBaseAddress->ISR;
 572:Drivers/STM32F0xx_HAL_Driver/Src/stm32f0xx_hal_dma.c ****   uint32_t source_it = hdma->Instance->CCR;
 573:Drivers/STM32F0xx_HAL_Driver/Src/stm32f0xx_hal_dma.c **** 
 574:Drivers/STM32F0xx_HAL_Driver/Src/stm32f0xx_hal_dma.c ****   /* Half Transfer Complete Interrupt management ******************************/
 575:Drivers/STM32F0xx_HAL_Driver/Src/stm32f0xx_hal_dma.c ****   if ((RESET != (flag_it & (DMA_FLAG_HT1 << hdma->ChannelIndex))) && (RESET != (source_it & DMA_IT_
 576:Drivers/STM32F0xx_HAL_Driver/Src/stm32f0xx_hal_dma.c ****   {
ARM GAS  C:\Users\maari\AppData\Local\Temp\ccCUEZrL.s 			page 13


 577:Drivers/STM32F0xx_HAL_Driver/Src/stm32f0xx_hal_dma.c ****     /* Disable the half transfer interrupt if the DMA mode is not CIRCULAR */
 578:Drivers/STM32F0xx_HAL_Driver/Src/stm32f0xx_hal_dma.c ****     if ((hdma->Instance->CCR & DMA_CCR_CIRC) == 0U)
 579:Drivers/STM32F0xx_HAL_Driver/Src/stm32f0xx_hal_dma.c ****     {
 580:Drivers/STM32F0xx_HAL_Driver/Src/stm32f0xx_hal_dma.c ****       /* Disable the half transfer interrupt */
 581:Drivers/STM32F0xx_HAL_Driver/Src/stm32f0xx_hal_dma.c ****       hdma->Instance->CCR &= ~DMA_IT_HT;
 582:Drivers/STM32F0xx_HAL_Driver/Src/stm32f0xx_hal_dma.c ****     }
 583:Drivers/STM32F0xx_HAL_Driver/Src/stm32f0xx_hal_dma.c **** 
 584:Drivers/STM32F0xx_HAL_Driver/Src/stm32f0xx_hal_dma.c ****     /* Clear the half transfer complete flag */
 585:Drivers/STM32F0xx_HAL_Driver/Src/stm32f0xx_hal_dma.c ****     hdma->DmaBaseAddress->IFCR = DMA_FLAG_HT1 << hdma->ChannelIndex;
 586:Drivers/STM32F0xx_HAL_Driver/Src/stm32f0xx_hal_dma.c **** 
 587:Drivers/STM32F0xx_HAL_Driver/Src/stm32f0xx_hal_dma.c ****     /* DMA peripheral state is not updated in Half Transfer */
 588:Drivers/STM32F0xx_HAL_Driver/Src/stm32f0xx_hal_dma.c ****     /* State is updated only in Transfer Complete case */
 589:Drivers/STM32F0xx_HAL_Driver/Src/stm32f0xx_hal_dma.c **** 
 590:Drivers/STM32F0xx_HAL_Driver/Src/stm32f0xx_hal_dma.c ****     if (hdma->XferHalfCpltCallback != NULL)
 591:Drivers/STM32F0xx_HAL_Driver/Src/stm32f0xx_hal_dma.c ****     {
 592:Drivers/STM32F0xx_HAL_Driver/Src/stm32f0xx_hal_dma.c ****       /* Half transfer callback */
 593:Drivers/STM32F0xx_HAL_Driver/Src/stm32f0xx_hal_dma.c ****       hdma->XferHalfCpltCallback(hdma);
 594:Drivers/STM32F0xx_HAL_Driver/Src/stm32f0xx_hal_dma.c ****     }
 595:Drivers/STM32F0xx_HAL_Driver/Src/stm32f0xx_hal_dma.c ****   }
 596:Drivers/STM32F0xx_HAL_Driver/Src/stm32f0xx_hal_dma.c **** 
 597:Drivers/STM32F0xx_HAL_Driver/Src/stm32f0xx_hal_dma.c ****   /* Transfer Complete Interrupt management ***********************************/
 598:Drivers/STM32F0xx_HAL_Driver/Src/stm32f0xx_hal_dma.c ****   else if ((RESET != (flag_it & (DMA_FLAG_TC1 << hdma->ChannelIndex))) && (RESET != (source_it & DM
 599:Drivers/STM32F0xx_HAL_Driver/Src/stm32f0xx_hal_dma.c ****   {
 600:Drivers/STM32F0xx_HAL_Driver/Src/stm32f0xx_hal_dma.c ****     if ((hdma->Instance->CCR & DMA_CCR_CIRC) == 0U)
 601:Drivers/STM32F0xx_HAL_Driver/Src/stm32f0xx_hal_dma.c ****     {
 602:Drivers/STM32F0xx_HAL_Driver/Src/stm32f0xx_hal_dma.c ****       /* Disable the transfer complete  & transfer error interrupts */
 603:Drivers/STM32F0xx_HAL_Driver/Src/stm32f0xx_hal_dma.c ****       /* if the DMA mode is not CIRCULAR */
 604:Drivers/STM32F0xx_HAL_Driver/Src/stm32f0xx_hal_dma.c ****       hdma->Instance->CCR &= ~(DMA_IT_TC | DMA_IT_TE);
 605:Drivers/STM32F0xx_HAL_Driver/Src/stm32f0xx_hal_dma.c **** 
 606:Drivers/STM32F0xx_HAL_Driver/Src/stm32f0xx_hal_dma.c ****       /* Change the DMA state */
 607:Drivers/STM32F0xx_HAL_Driver/Src/stm32f0xx_hal_dma.c ****       hdma->State = HAL_DMA_STATE_READY;
 608:Drivers/STM32F0xx_HAL_Driver/Src/stm32f0xx_hal_dma.c ****     }
 609:Drivers/STM32F0xx_HAL_Driver/Src/stm32f0xx_hal_dma.c **** 
 610:Drivers/STM32F0xx_HAL_Driver/Src/stm32f0xx_hal_dma.c ****     /* Clear the transfer complete flag */
 611:Drivers/STM32F0xx_HAL_Driver/Src/stm32f0xx_hal_dma.c ****     hdma->DmaBaseAddress->IFCR = DMA_FLAG_TC1 << hdma->ChannelIndex;
 612:Drivers/STM32F0xx_HAL_Driver/Src/stm32f0xx_hal_dma.c **** 
 613:Drivers/STM32F0xx_HAL_Driver/Src/stm32f0xx_hal_dma.c ****     /* Process Unlocked */
 614:Drivers/STM32F0xx_HAL_Driver/Src/stm32f0xx_hal_dma.c ****     __HAL_UNLOCK(hdma);
 615:Drivers/STM32F0xx_HAL_Driver/Src/stm32f0xx_hal_dma.c **** 
 616:Drivers/STM32F0xx_HAL_Driver/Src/stm32f0xx_hal_dma.c ****     if (hdma->XferCpltCallback != NULL)
 617:Drivers/STM32F0xx_HAL_Driver/Src/stm32f0xx_hal_dma.c ****     {
 618:Drivers/STM32F0xx_HAL_Driver/Src/stm32f0xx_hal_dma.c ****       /* Transfer complete callback */
 619:Drivers/STM32F0xx_HAL_Driver/Src/stm32f0xx_hal_dma.c ****       hdma->XferCpltCallback(hdma);
 620:Drivers/STM32F0xx_HAL_Driver/Src/stm32f0xx_hal_dma.c ****     }
 621:Drivers/STM32F0xx_HAL_Driver/Src/stm32f0xx_hal_dma.c ****   }
 622:Drivers/STM32F0xx_HAL_Driver/Src/stm32f0xx_hal_dma.c **** 
 623:Drivers/STM32F0xx_HAL_Driver/Src/stm32f0xx_hal_dma.c ****   /* Transfer Error Interrupt management ***************************************/
 624:Drivers/STM32F0xx_HAL_Driver/Src/stm32f0xx_hal_dma.c ****   else if ((RESET != (flag_it & (DMA_FLAG_TE1 << hdma->ChannelIndex))) && (RESET != (source_it & DM
 625:Drivers/STM32F0xx_HAL_Driver/Src/stm32f0xx_hal_dma.c ****   {
 626:Drivers/STM32F0xx_HAL_Driver/Src/stm32f0xx_hal_dma.c ****     /* When a DMA transfer error occurs */
 627:Drivers/STM32F0xx_HAL_Driver/Src/stm32f0xx_hal_dma.c ****     /* A hardware clear of its EN bits is performed */
 628:Drivers/STM32F0xx_HAL_Driver/Src/stm32f0xx_hal_dma.c ****     /* Then, disable all DMA interrupts */
 629:Drivers/STM32F0xx_HAL_Driver/Src/stm32f0xx_hal_dma.c ****     hdma->Instance->CCR &= ~(DMA_IT_TC | DMA_IT_HT | DMA_IT_TE);
 630:Drivers/STM32F0xx_HAL_Driver/Src/stm32f0xx_hal_dma.c **** 
 631:Drivers/STM32F0xx_HAL_Driver/Src/stm32f0xx_hal_dma.c ****     /* Clear all flags */
 632:Drivers/STM32F0xx_HAL_Driver/Src/stm32f0xx_hal_dma.c ****     hdma->DmaBaseAddress->IFCR = DMA_FLAG_GL1 << hdma->ChannelIndex;
 633:Drivers/STM32F0xx_HAL_Driver/Src/stm32f0xx_hal_dma.c **** 
ARM GAS  C:\Users\maari\AppData\Local\Temp\ccCUEZrL.s 			page 14


 634:Drivers/STM32F0xx_HAL_Driver/Src/stm32f0xx_hal_dma.c ****     /* Update error code */
 635:Drivers/STM32F0xx_HAL_Driver/Src/stm32f0xx_hal_dma.c ****     hdma->ErrorCode = HAL_DMA_ERROR_TE;
 636:Drivers/STM32F0xx_HAL_Driver/Src/stm32f0xx_hal_dma.c **** 
 637:Drivers/STM32F0xx_HAL_Driver/Src/stm32f0xx_hal_dma.c ****     /* Change the DMA state */
 638:Drivers/STM32F0xx_HAL_Driver/Src/stm32f0xx_hal_dma.c ****     hdma->State = HAL_DMA_STATE_READY;
 639:Drivers/STM32F0xx_HAL_Driver/Src/stm32f0xx_hal_dma.c **** 
 640:Drivers/STM32F0xx_HAL_Driver/Src/stm32f0xx_hal_dma.c ****     /* Process Unlocked */
 641:Drivers/STM32F0xx_HAL_Driver/Src/stm32f0xx_hal_dma.c ****     __HAL_UNLOCK(hdma);
 642:Drivers/STM32F0xx_HAL_Driver/Src/stm32f0xx_hal_dma.c **** 
 643:Drivers/STM32F0xx_HAL_Driver/Src/stm32f0xx_hal_dma.c ****     if (hdma->XferErrorCallback != NULL)
 644:Drivers/STM32F0xx_HAL_Driver/Src/stm32f0xx_hal_dma.c ****     {
 645:Drivers/STM32F0xx_HAL_Driver/Src/stm32f0xx_hal_dma.c ****       /* Transfer error callback */
 646:Drivers/STM32F0xx_HAL_Driver/Src/stm32f0xx_hal_dma.c ****       hdma->XferErrorCallback(hdma);
 647:Drivers/STM32F0xx_HAL_Driver/Src/stm32f0xx_hal_dma.c ****     }
 648:Drivers/STM32F0xx_HAL_Driver/Src/stm32f0xx_hal_dma.c ****   }
 649:Drivers/STM32F0xx_HAL_Driver/Src/stm32f0xx_hal_dma.c **** }
 650:Drivers/STM32F0xx_HAL_Driver/Src/stm32f0xx_hal_dma.c **** 
 651:Drivers/STM32F0xx_HAL_Driver/Src/stm32f0xx_hal_dma.c **** /**
 652:Drivers/STM32F0xx_HAL_Driver/Src/stm32f0xx_hal_dma.c ****   * @brief  Register callbacks
 653:Drivers/STM32F0xx_HAL_Driver/Src/stm32f0xx_hal_dma.c ****   * @param  hdma                 pointer to a DMA_HandleTypeDef structure that contains
 654:Drivers/STM32F0xx_HAL_Driver/Src/stm32f0xx_hal_dma.c ****   *                               the configuration information for the specified DMA Stream.
 655:Drivers/STM32F0xx_HAL_Driver/Src/stm32f0xx_hal_dma.c ****   * @param  CallbackID           User Callback identifier
 656:Drivers/STM32F0xx_HAL_Driver/Src/stm32f0xx_hal_dma.c ****   *                               a HAL_DMA_CallbackIDTypeDef ENUM as parameter.
 657:Drivers/STM32F0xx_HAL_Driver/Src/stm32f0xx_hal_dma.c ****   * @param  pCallback            pointer to private callback function which has pointer to
 658:Drivers/STM32F0xx_HAL_Driver/Src/stm32f0xx_hal_dma.c ****   *                               a DMA_HandleTypeDef structure as parameter.
 659:Drivers/STM32F0xx_HAL_Driver/Src/stm32f0xx_hal_dma.c ****   * @retval HAL status
 660:Drivers/STM32F0xx_HAL_Driver/Src/stm32f0xx_hal_dma.c ****   */
 661:Drivers/STM32F0xx_HAL_Driver/Src/stm32f0xx_hal_dma.c **** HAL_StatusTypeDef HAL_DMA_RegisterCallback(DMA_HandleTypeDef *hdma, HAL_DMA_CallbackIDTypeDef Callb
 662:Drivers/STM32F0xx_HAL_Driver/Src/stm32f0xx_hal_dma.c **** {
 663:Drivers/STM32F0xx_HAL_Driver/Src/stm32f0xx_hal_dma.c ****   HAL_StatusTypeDef status = HAL_OK;
 664:Drivers/STM32F0xx_HAL_Driver/Src/stm32f0xx_hal_dma.c **** 
 665:Drivers/STM32F0xx_HAL_Driver/Src/stm32f0xx_hal_dma.c ****   /* Process locked */
 666:Drivers/STM32F0xx_HAL_Driver/Src/stm32f0xx_hal_dma.c ****   __HAL_LOCK(hdma);
 667:Drivers/STM32F0xx_HAL_Driver/Src/stm32f0xx_hal_dma.c **** 
 668:Drivers/STM32F0xx_HAL_Driver/Src/stm32f0xx_hal_dma.c ****   if (HAL_DMA_STATE_READY == hdma->State)
 669:Drivers/STM32F0xx_HAL_Driver/Src/stm32f0xx_hal_dma.c ****   {
 670:Drivers/STM32F0xx_HAL_Driver/Src/stm32f0xx_hal_dma.c ****     switch (CallbackID)
 671:Drivers/STM32F0xx_HAL_Driver/Src/stm32f0xx_hal_dma.c ****     {
 672:Drivers/STM32F0xx_HAL_Driver/Src/stm32f0xx_hal_dma.c ****       case  HAL_DMA_XFER_CPLT_CB_ID:
 673:Drivers/STM32F0xx_HAL_Driver/Src/stm32f0xx_hal_dma.c ****         hdma->XferCpltCallback = pCallback;
 674:Drivers/STM32F0xx_HAL_Driver/Src/stm32f0xx_hal_dma.c ****         break;
 675:Drivers/STM32F0xx_HAL_Driver/Src/stm32f0xx_hal_dma.c **** 
 676:Drivers/STM32F0xx_HAL_Driver/Src/stm32f0xx_hal_dma.c ****       case  HAL_DMA_XFER_HALFCPLT_CB_ID:
 677:Drivers/STM32F0xx_HAL_Driver/Src/stm32f0xx_hal_dma.c ****         hdma->XferHalfCpltCallback = pCallback;
 678:Drivers/STM32F0xx_HAL_Driver/Src/stm32f0xx_hal_dma.c ****         break;
 679:Drivers/STM32F0xx_HAL_Driver/Src/stm32f0xx_hal_dma.c **** 
 680:Drivers/STM32F0xx_HAL_Driver/Src/stm32f0xx_hal_dma.c ****       case  HAL_DMA_XFER_ERROR_CB_ID:
 681:Drivers/STM32F0xx_HAL_Driver/Src/stm32f0xx_hal_dma.c ****         hdma->XferErrorCallback = pCallback;
 682:Drivers/STM32F0xx_HAL_Driver/Src/stm32f0xx_hal_dma.c ****         break;
 683:Drivers/STM32F0xx_HAL_Driver/Src/stm32f0xx_hal_dma.c **** 
 684:Drivers/STM32F0xx_HAL_Driver/Src/stm32f0xx_hal_dma.c ****       case  HAL_DMA_XFER_ABORT_CB_ID:
 685:Drivers/STM32F0xx_HAL_Driver/Src/stm32f0xx_hal_dma.c ****         hdma->XferAbortCallback = pCallback;
 686:Drivers/STM32F0xx_HAL_Driver/Src/stm32f0xx_hal_dma.c ****         break;
 687:Drivers/STM32F0xx_HAL_Driver/Src/stm32f0xx_hal_dma.c **** 
 688:Drivers/STM32F0xx_HAL_Driver/Src/stm32f0xx_hal_dma.c ****       default:
 689:Drivers/STM32F0xx_HAL_Driver/Src/stm32f0xx_hal_dma.c ****         status = HAL_ERROR;
 690:Drivers/STM32F0xx_HAL_Driver/Src/stm32f0xx_hal_dma.c ****         break;
ARM GAS  C:\Users\maari\AppData\Local\Temp\ccCUEZrL.s 			page 15


 691:Drivers/STM32F0xx_HAL_Driver/Src/stm32f0xx_hal_dma.c ****     }
 692:Drivers/STM32F0xx_HAL_Driver/Src/stm32f0xx_hal_dma.c ****   }
 693:Drivers/STM32F0xx_HAL_Driver/Src/stm32f0xx_hal_dma.c ****   else
 694:Drivers/STM32F0xx_HAL_Driver/Src/stm32f0xx_hal_dma.c ****   {
 695:Drivers/STM32F0xx_HAL_Driver/Src/stm32f0xx_hal_dma.c ****     status = HAL_ERROR;
 696:Drivers/STM32F0xx_HAL_Driver/Src/stm32f0xx_hal_dma.c ****   }
 697:Drivers/STM32F0xx_HAL_Driver/Src/stm32f0xx_hal_dma.c **** 
 698:Drivers/STM32F0xx_HAL_Driver/Src/stm32f0xx_hal_dma.c ****   /* Release Lock */
 699:Drivers/STM32F0xx_HAL_Driver/Src/stm32f0xx_hal_dma.c ****   __HAL_UNLOCK(hdma);
 700:Drivers/STM32F0xx_HAL_Driver/Src/stm32f0xx_hal_dma.c **** 
 701:Drivers/STM32F0xx_HAL_Driver/Src/stm32f0xx_hal_dma.c ****   return status;
 702:Drivers/STM32F0xx_HAL_Driver/Src/stm32f0xx_hal_dma.c **** }
 703:Drivers/STM32F0xx_HAL_Driver/Src/stm32f0xx_hal_dma.c **** 
 704:Drivers/STM32F0xx_HAL_Driver/Src/stm32f0xx_hal_dma.c **** /**
 705:Drivers/STM32F0xx_HAL_Driver/Src/stm32f0xx_hal_dma.c ****   * @brief  UnRegister callbacks
 706:Drivers/STM32F0xx_HAL_Driver/Src/stm32f0xx_hal_dma.c ****   * @param  hdma                 pointer to a DMA_HandleTypeDef structure that contains
 707:Drivers/STM32F0xx_HAL_Driver/Src/stm32f0xx_hal_dma.c ****   *                               the configuration information for the specified DMA Stream.
 708:Drivers/STM32F0xx_HAL_Driver/Src/stm32f0xx_hal_dma.c ****   * @param  CallbackID           User Callback identifier
 709:Drivers/STM32F0xx_HAL_Driver/Src/stm32f0xx_hal_dma.c ****   *                               a HAL_DMA_CallbackIDTypeDef ENUM as parameter.
 710:Drivers/STM32F0xx_HAL_Driver/Src/stm32f0xx_hal_dma.c ****   * @retval HAL status
 711:Drivers/STM32F0xx_HAL_Driver/Src/stm32f0xx_hal_dma.c ****   */
 712:Drivers/STM32F0xx_HAL_Driver/Src/stm32f0xx_hal_dma.c **** HAL_StatusTypeDef HAL_DMA_UnRegisterCallback(DMA_HandleTypeDef *hdma, HAL_DMA_CallbackIDTypeDef Cal
 713:Drivers/STM32F0xx_HAL_Driver/Src/stm32f0xx_hal_dma.c **** {
 714:Drivers/STM32F0xx_HAL_Driver/Src/stm32f0xx_hal_dma.c ****   HAL_StatusTypeDef status = HAL_OK;
 715:Drivers/STM32F0xx_HAL_Driver/Src/stm32f0xx_hal_dma.c **** 
 716:Drivers/STM32F0xx_HAL_Driver/Src/stm32f0xx_hal_dma.c ****   /* Process locked */
 717:Drivers/STM32F0xx_HAL_Driver/Src/stm32f0xx_hal_dma.c ****   __HAL_LOCK(hdma);
 718:Drivers/STM32F0xx_HAL_Driver/Src/stm32f0xx_hal_dma.c **** 
 719:Drivers/STM32F0xx_HAL_Driver/Src/stm32f0xx_hal_dma.c ****   if (HAL_DMA_STATE_READY == hdma->State)
 720:Drivers/STM32F0xx_HAL_Driver/Src/stm32f0xx_hal_dma.c ****   {
 721:Drivers/STM32F0xx_HAL_Driver/Src/stm32f0xx_hal_dma.c ****     switch (CallbackID)
 722:Drivers/STM32F0xx_HAL_Driver/Src/stm32f0xx_hal_dma.c ****     {
 723:Drivers/STM32F0xx_HAL_Driver/Src/stm32f0xx_hal_dma.c ****       case  HAL_DMA_XFER_CPLT_CB_ID:
 724:Drivers/STM32F0xx_HAL_Driver/Src/stm32f0xx_hal_dma.c ****         hdma->XferCpltCallback = NULL;
 725:Drivers/STM32F0xx_HAL_Driver/Src/stm32f0xx_hal_dma.c ****         break;
 726:Drivers/STM32F0xx_HAL_Driver/Src/stm32f0xx_hal_dma.c **** 
 727:Drivers/STM32F0xx_HAL_Driver/Src/stm32f0xx_hal_dma.c ****       case  HAL_DMA_XFER_HALFCPLT_CB_ID:
 728:Drivers/STM32F0xx_HAL_Driver/Src/stm32f0xx_hal_dma.c ****         hdma->XferHalfCpltCallback = NULL;
 729:Drivers/STM32F0xx_HAL_Driver/Src/stm32f0xx_hal_dma.c ****         break;
 730:Drivers/STM32F0xx_HAL_Driver/Src/stm32f0xx_hal_dma.c **** 
 731:Drivers/STM32F0xx_HAL_Driver/Src/stm32f0xx_hal_dma.c ****       case  HAL_DMA_XFER_ERROR_CB_ID:
 732:Drivers/STM32F0xx_HAL_Driver/Src/stm32f0xx_hal_dma.c ****         hdma->XferErrorCallback = NULL;
 733:Drivers/STM32F0xx_HAL_Driver/Src/stm32f0xx_hal_dma.c ****         break;
 734:Drivers/STM32F0xx_HAL_Driver/Src/stm32f0xx_hal_dma.c **** 
 735:Drivers/STM32F0xx_HAL_Driver/Src/stm32f0xx_hal_dma.c ****       case  HAL_DMA_XFER_ABORT_CB_ID:
 736:Drivers/STM32F0xx_HAL_Driver/Src/stm32f0xx_hal_dma.c ****         hdma->XferAbortCallback = NULL;
 737:Drivers/STM32F0xx_HAL_Driver/Src/stm32f0xx_hal_dma.c ****         break;
 738:Drivers/STM32F0xx_HAL_Driver/Src/stm32f0xx_hal_dma.c **** 
 739:Drivers/STM32F0xx_HAL_Driver/Src/stm32f0xx_hal_dma.c ****       case   HAL_DMA_XFER_ALL_CB_ID:
 740:Drivers/STM32F0xx_HAL_Driver/Src/stm32f0xx_hal_dma.c ****         hdma->XferCpltCallback = NULL;
 741:Drivers/STM32F0xx_HAL_Driver/Src/stm32f0xx_hal_dma.c ****         hdma->XferHalfCpltCallback = NULL;
 742:Drivers/STM32F0xx_HAL_Driver/Src/stm32f0xx_hal_dma.c ****         hdma->XferErrorCallback = NULL;
 743:Drivers/STM32F0xx_HAL_Driver/Src/stm32f0xx_hal_dma.c ****         hdma->XferAbortCallback = NULL;
 744:Drivers/STM32F0xx_HAL_Driver/Src/stm32f0xx_hal_dma.c ****         break;
 745:Drivers/STM32F0xx_HAL_Driver/Src/stm32f0xx_hal_dma.c **** 
 746:Drivers/STM32F0xx_HAL_Driver/Src/stm32f0xx_hal_dma.c ****       default:
 747:Drivers/STM32F0xx_HAL_Driver/Src/stm32f0xx_hal_dma.c ****         status = HAL_ERROR;
ARM GAS  C:\Users\maari\AppData\Local\Temp\ccCUEZrL.s 			page 16


 748:Drivers/STM32F0xx_HAL_Driver/Src/stm32f0xx_hal_dma.c ****         break;
 749:Drivers/STM32F0xx_HAL_Driver/Src/stm32f0xx_hal_dma.c ****     }
 750:Drivers/STM32F0xx_HAL_Driver/Src/stm32f0xx_hal_dma.c ****   }
 751:Drivers/STM32F0xx_HAL_Driver/Src/stm32f0xx_hal_dma.c ****   else
 752:Drivers/STM32F0xx_HAL_Driver/Src/stm32f0xx_hal_dma.c ****   {
 753:Drivers/STM32F0xx_HAL_Driver/Src/stm32f0xx_hal_dma.c ****     status = HAL_ERROR;
 754:Drivers/STM32F0xx_HAL_Driver/Src/stm32f0xx_hal_dma.c ****   }
 755:Drivers/STM32F0xx_HAL_Driver/Src/stm32f0xx_hal_dma.c **** 
 756:Drivers/STM32F0xx_HAL_Driver/Src/stm32f0xx_hal_dma.c ****   /* Release Lock */
 757:Drivers/STM32F0xx_HAL_Driver/Src/stm32f0xx_hal_dma.c ****   __HAL_UNLOCK(hdma);
 758:Drivers/STM32F0xx_HAL_Driver/Src/stm32f0xx_hal_dma.c **** 
 759:Drivers/STM32F0xx_HAL_Driver/Src/stm32f0xx_hal_dma.c ****   return status;
 760:Drivers/STM32F0xx_HAL_Driver/Src/stm32f0xx_hal_dma.c **** }
 761:Drivers/STM32F0xx_HAL_Driver/Src/stm32f0xx_hal_dma.c **** 
 762:Drivers/STM32F0xx_HAL_Driver/Src/stm32f0xx_hal_dma.c **** /**
 763:Drivers/STM32F0xx_HAL_Driver/Src/stm32f0xx_hal_dma.c ****   * @}
 764:Drivers/STM32F0xx_HAL_Driver/Src/stm32f0xx_hal_dma.c ****   */
 765:Drivers/STM32F0xx_HAL_Driver/Src/stm32f0xx_hal_dma.c **** 
 766:Drivers/STM32F0xx_HAL_Driver/Src/stm32f0xx_hal_dma.c **** /** @defgroup DMA_Exported_Functions_Group3 Peripheral State functions
 767:Drivers/STM32F0xx_HAL_Driver/Src/stm32f0xx_hal_dma.c ****  *  @brief    Peripheral State functions
 768:Drivers/STM32F0xx_HAL_Driver/Src/stm32f0xx_hal_dma.c ****  *
 769:Drivers/STM32F0xx_HAL_Driver/Src/stm32f0xx_hal_dma.c **** @verbatim
 770:Drivers/STM32F0xx_HAL_Driver/Src/stm32f0xx_hal_dma.c ****  ===============================================================================
 771:Drivers/STM32F0xx_HAL_Driver/Src/stm32f0xx_hal_dma.c ****                     ##### State and Errors functions #####
 772:Drivers/STM32F0xx_HAL_Driver/Src/stm32f0xx_hal_dma.c ****  ===============================================================================
 773:Drivers/STM32F0xx_HAL_Driver/Src/stm32f0xx_hal_dma.c ****     [..]
 774:Drivers/STM32F0xx_HAL_Driver/Src/stm32f0xx_hal_dma.c ****     This subsection provides functions allowing to
 775:Drivers/STM32F0xx_HAL_Driver/Src/stm32f0xx_hal_dma.c ****       (+) Check the DMA state
 776:Drivers/STM32F0xx_HAL_Driver/Src/stm32f0xx_hal_dma.c ****       (+) Get error code
 777:Drivers/STM32F0xx_HAL_Driver/Src/stm32f0xx_hal_dma.c **** 
 778:Drivers/STM32F0xx_HAL_Driver/Src/stm32f0xx_hal_dma.c **** @endverbatim
 779:Drivers/STM32F0xx_HAL_Driver/Src/stm32f0xx_hal_dma.c ****   * @{
 780:Drivers/STM32F0xx_HAL_Driver/Src/stm32f0xx_hal_dma.c ****   */
 781:Drivers/STM32F0xx_HAL_Driver/Src/stm32f0xx_hal_dma.c **** 
 782:Drivers/STM32F0xx_HAL_Driver/Src/stm32f0xx_hal_dma.c **** /**
 783:Drivers/STM32F0xx_HAL_Driver/Src/stm32f0xx_hal_dma.c ****   * @brief  Returns the DMA state.
 784:Drivers/STM32F0xx_HAL_Driver/Src/stm32f0xx_hal_dma.c ****   * @param  hdma pointer to a DMA_HandleTypeDef structure that contains
 785:Drivers/STM32F0xx_HAL_Driver/Src/stm32f0xx_hal_dma.c ****   *               the configuration information for the specified DMA Channel.
 786:Drivers/STM32F0xx_HAL_Driver/Src/stm32f0xx_hal_dma.c ****   * @retval HAL state
 787:Drivers/STM32F0xx_HAL_Driver/Src/stm32f0xx_hal_dma.c ****   */
 788:Drivers/STM32F0xx_HAL_Driver/Src/stm32f0xx_hal_dma.c **** HAL_DMA_StateTypeDef HAL_DMA_GetState(DMA_HandleTypeDef *hdma)
 789:Drivers/STM32F0xx_HAL_Driver/Src/stm32f0xx_hal_dma.c **** {
 790:Drivers/STM32F0xx_HAL_Driver/Src/stm32f0xx_hal_dma.c ****   return hdma->State;
 791:Drivers/STM32F0xx_HAL_Driver/Src/stm32f0xx_hal_dma.c **** }
 792:Drivers/STM32F0xx_HAL_Driver/Src/stm32f0xx_hal_dma.c **** 
 793:Drivers/STM32F0xx_HAL_Driver/Src/stm32f0xx_hal_dma.c **** /**
 794:Drivers/STM32F0xx_HAL_Driver/Src/stm32f0xx_hal_dma.c ****   * @brief  Return the DMA error code
 795:Drivers/STM32F0xx_HAL_Driver/Src/stm32f0xx_hal_dma.c ****   * @param  hdma pointer to a DMA_HandleTypeDef structure that contains
 796:Drivers/STM32F0xx_HAL_Driver/Src/stm32f0xx_hal_dma.c ****   *              the configuration information for the specified DMA Channel.
 797:Drivers/STM32F0xx_HAL_Driver/Src/stm32f0xx_hal_dma.c ****   * @retval DMA Error Code
 798:Drivers/STM32F0xx_HAL_Driver/Src/stm32f0xx_hal_dma.c ****   */
 799:Drivers/STM32F0xx_HAL_Driver/Src/stm32f0xx_hal_dma.c **** uint32_t HAL_DMA_GetError(DMA_HandleTypeDef *hdma)
 800:Drivers/STM32F0xx_HAL_Driver/Src/stm32f0xx_hal_dma.c **** {
 801:Drivers/STM32F0xx_HAL_Driver/Src/stm32f0xx_hal_dma.c ****   return hdma->ErrorCode;
 802:Drivers/STM32F0xx_HAL_Driver/Src/stm32f0xx_hal_dma.c **** }
 803:Drivers/STM32F0xx_HAL_Driver/Src/stm32f0xx_hal_dma.c **** 
 804:Drivers/STM32F0xx_HAL_Driver/Src/stm32f0xx_hal_dma.c **** /**
ARM GAS  C:\Users\maari\AppData\Local\Temp\ccCUEZrL.s 			page 17


 805:Drivers/STM32F0xx_HAL_Driver/Src/stm32f0xx_hal_dma.c ****   * @}
 806:Drivers/STM32F0xx_HAL_Driver/Src/stm32f0xx_hal_dma.c ****   */
 807:Drivers/STM32F0xx_HAL_Driver/Src/stm32f0xx_hal_dma.c **** 
 808:Drivers/STM32F0xx_HAL_Driver/Src/stm32f0xx_hal_dma.c **** /**
 809:Drivers/STM32F0xx_HAL_Driver/Src/stm32f0xx_hal_dma.c ****   * @}
 810:Drivers/STM32F0xx_HAL_Driver/Src/stm32f0xx_hal_dma.c ****   */
 811:Drivers/STM32F0xx_HAL_Driver/Src/stm32f0xx_hal_dma.c **** 
 812:Drivers/STM32F0xx_HAL_Driver/Src/stm32f0xx_hal_dma.c **** /** @addtogroup DMA_Private_Functions
 813:Drivers/STM32F0xx_HAL_Driver/Src/stm32f0xx_hal_dma.c ****   * @{
 814:Drivers/STM32F0xx_HAL_Driver/Src/stm32f0xx_hal_dma.c ****   */
 815:Drivers/STM32F0xx_HAL_Driver/Src/stm32f0xx_hal_dma.c **** 
 816:Drivers/STM32F0xx_HAL_Driver/Src/stm32f0xx_hal_dma.c **** /**
 817:Drivers/STM32F0xx_HAL_Driver/Src/stm32f0xx_hal_dma.c ****   * @brief  Set the DMA Transfer parameters.
 818:Drivers/STM32F0xx_HAL_Driver/Src/stm32f0xx_hal_dma.c ****   * @param  hdma       pointer to a DMA_HandleTypeDef structure that contains
 819:Drivers/STM32F0xx_HAL_Driver/Src/stm32f0xx_hal_dma.c ****   *                     the configuration information for the specified DMA Channel.
 820:Drivers/STM32F0xx_HAL_Driver/Src/stm32f0xx_hal_dma.c ****   * @param  SrcAddress The source memory Buffer address
 821:Drivers/STM32F0xx_HAL_Driver/Src/stm32f0xx_hal_dma.c ****   * @param  DstAddress The destination memory Buffer address
 822:Drivers/STM32F0xx_HAL_Driver/Src/stm32f0xx_hal_dma.c ****   * @param  DataLength The length of data to be transferred from source to destination
 823:Drivers/STM32F0xx_HAL_Driver/Src/stm32f0xx_hal_dma.c ****   * @retval HAL status
 824:Drivers/STM32F0xx_HAL_Driver/Src/stm32f0xx_hal_dma.c ****   */
 825:Drivers/STM32F0xx_HAL_Driver/Src/stm32f0xx_hal_dma.c **** static void DMA_SetConfig(DMA_HandleTypeDef *hdma, uint32_t SrcAddress, uint32_t DstAddress, uint32
 826:Drivers/STM32F0xx_HAL_Driver/Src/stm32f0xx_hal_dma.c **** {
 827:Drivers/STM32F0xx_HAL_Driver/Src/stm32f0xx_hal_dma.c ****   /* Clear all flags */
 828:Drivers/STM32F0xx_HAL_Driver/Src/stm32f0xx_hal_dma.c ****   hdma->DmaBaseAddress->IFCR  = (DMA_FLAG_GL1 << hdma->ChannelIndex);
 829:Drivers/STM32F0xx_HAL_Driver/Src/stm32f0xx_hal_dma.c **** 
 830:Drivers/STM32F0xx_HAL_Driver/Src/stm32f0xx_hal_dma.c ****   /* Configure DMA Channel data length */
 831:Drivers/STM32F0xx_HAL_Driver/Src/stm32f0xx_hal_dma.c ****   hdma->Instance->CNDTR = DataLength;
 832:Drivers/STM32F0xx_HAL_Driver/Src/stm32f0xx_hal_dma.c **** 
 833:Drivers/STM32F0xx_HAL_Driver/Src/stm32f0xx_hal_dma.c ****   /* Memory to Peripheral */
 834:Drivers/STM32F0xx_HAL_Driver/Src/stm32f0xx_hal_dma.c ****   if ((hdma->Init.Direction) == DMA_MEMORY_TO_PERIPH)
 835:Drivers/STM32F0xx_HAL_Driver/Src/stm32f0xx_hal_dma.c ****   {
 836:Drivers/STM32F0xx_HAL_Driver/Src/stm32f0xx_hal_dma.c ****     /* Configure DMA Channel destination address */
 837:Drivers/STM32F0xx_HAL_Driver/Src/stm32f0xx_hal_dma.c ****     hdma->Instance->CPAR = DstAddress;
 838:Drivers/STM32F0xx_HAL_Driver/Src/stm32f0xx_hal_dma.c **** 
 839:Drivers/STM32F0xx_HAL_Driver/Src/stm32f0xx_hal_dma.c ****     /* Configure DMA Channel source address */
 840:Drivers/STM32F0xx_HAL_Driver/Src/stm32f0xx_hal_dma.c ****     hdma->Instance->CMAR = SrcAddress;
 841:Drivers/STM32F0xx_HAL_Driver/Src/stm32f0xx_hal_dma.c ****   }
 842:Drivers/STM32F0xx_HAL_Driver/Src/stm32f0xx_hal_dma.c ****   /* Peripheral to Memory */
 843:Drivers/STM32F0xx_HAL_Driver/Src/stm32f0xx_hal_dma.c ****   else
 844:Drivers/STM32F0xx_HAL_Driver/Src/stm32f0xx_hal_dma.c ****   {
 845:Drivers/STM32F0xx_HAL_Driver/Src/stm32f0xx_hal_dma.c ****     /* Configure DMA Channel source address */
 846:Drivers/STM32F0xx_HAL_Driver/Src/stm32f0xx_hal_dma.c ****     hdma->Instance->CPAR = SrcAddress;
 847:Drivers/STM32F0xx_HAL_Driver/Src/stm32f0xx_hal_dma.c **** 
 848:Drivers/STM32F0xx_HAL_Driver/Src/stm32f0xx_hal_dma.c ****     /* Configure DMA Channel destination address */
 849:Drivers/STM32F0xx_HAL_Driver/Src/stm32f0xx_hal_dma.c ****     hdma->Instance->CMAR = DstAddress;
 850:Drivers/STM32F0xx_HAL_Driver/Src/stm32f0xx_hal_dma.c ****   }
 851:Drivers/STM32F0xx_HAL_Driver/Src/stm32f0xx_hal_dma.c **** }
 852:Drivers/STM32F0xx_HAL_Driver/Src/stm32f0xx_hal_dma.c **** 
 853:Drivers/STM32F0xx_HAL_Driver/Src/stm32f0xx_hal_dma.c **** /**
 854:Drivers/STM32F0xx_HAL_Driver/Src/stm32f0xx_hal_dma.c ****   * @brief  set the DMA base address and channel index depending on DMA instance
 855:Drivers/STM32F0xx_HAL_Driver/Src/stm32f0xx_hal_dma.c ****   * @param  hdma       pointer to a DMA_HandleTypeDef structure that contains
 856:Drivers/STM32F0xx_HAL_Driver/Src/stm32f0xx_hal_dma.c ****   *                     the configuration information for the specified DMA Stream.
 857:Drivers/STM32F0xx_HAL_Driver/Src/stm32f0xx_hal_dma.c ****   * @retval None
 858:Drivers/STM32F0xx_HAL_Driver/Src/stm32f0xx_hal_dma.c ****   */
 859:Drivers/STM32F0xx_HAL_Driver/Src/stm32f0xx_hal_dma.c **** static void DMA_CalcBaseAndBitshift(DMA_HandleTypeDef *hdma)
 105              		.loc 1 859 13 view .LVU34
 106              	.LBB11:
ARM GAS  C:\Users\maari\AppData\Local\Temp\ccCUEZrL.s 			page 18


 860:Drivers/STM32F0xx_HAL_Driver/Src/stm32f0xx_hal_dma.c **** {
 861:Drivers/STM32F0xx_HAL_Driver/Src/stm32f0xx_hal_dma.c **** #if defined (DMA2)
 862:Drivers/STM32F0xx_HAL_Driver/Src/stm32f0xx_hal_dma.c ****   /* calculation of the channel index */
 863:Drivers/STM32F0xx_HAL_Driver/Src/stm32f0xx_hal_dma.c ****   if ((uint32_t)(hdma->Instance) < (uint32_t)(DMA2_Channel1))
 864:Drivers/STM32F0xx_HAL_Driver/Src/stm32f0xx_hal_dma.c ****   {
 865:Drivers/STM32F0xx_HAL_Driver/Src/stm32f0xx_hal_dma.c ****     /* DMA1 */
 866:Drivers/STM32F0xx_HAL_Driver/Src/stm32f0xx_hal_dma.c ****     hdma->ChannelIndex = (((uint32_t)hdma->Instance - (uint32_t)DMA1_Channel1) / ((uint32_t)DMA1_Ch
 867:Drivers/STM32F0xx_HAL_Driver/Src/stm32f0xx_hal_dma.c ****     hdma->DmaBaseAddress = DMA1;
 868:Drivers/STM32F0xx_HAL_Driver/Src/stm32f0xx_hal_dma.c ****   }
 869:Drivers/STM32F0xx_HAL_Driver/Src/stm32f0xx_hal_dma.c ****   else
 870:Drivers/STM32F0xx_HAL_Driver/Src/stm32f0xx_hal_dma.c ****   {
 871:Drivers/STM32F0xx_HAL_Driver/Src/stm32f0xx_hal_dma.c ****     /* DMA2 */
 872:Drivers/STM32F0xx_HAL_Driver/Src/stm32f0xx_hal_dma.c ****     hdma->ChannelIndex = (((uint32_t)hdma->Instance - (uint32_t)DMA2_Channel1) / ((uint32_t)DMA2_Ch
 873:Drivers/STM32F0xx_HAL_Driver/Src/stm32f0xx_hal_dma.c ****     hdma->DmaBaseAddress = DMA2;
 874:Drivers/STM32F0xx_HAL_Driver/Src/stm32f0xx_hal_dma.c ****   }
 875:Drivers/STM32F0xx_HAL_Driver/Src/stm32f0xx_hal_dma.c **** #else
 876:Drivers/STM32F0xx_HAL_Driver/Src/stm32f0xx_hal_dma.c ****   /* calculation of the channel index */
 877:Drivers/STM32F0xx_HAL_Driver/Src/stm32f0xx_hal_dma.c ****   /* DMA1 */
 878:Drivers/STM32F0xx_HAL_Driver/Src/stm32f0xx_hal_dma.c ****   hdma->ChannelIndex = (((uint32_t)hdma->Instance - (uint32_t)DMA1_Channel1) / ((uint32_t)DMA1_Chan
 107              		.loc 1 878 3 view .LVU35
 108              		.loc 1 878 51 is_stmt 0 view .LVU36
 109 0032 0B4B     		ldr	r3, .L5+4
 110              	.LVL6:
 111              		.loc 1 878 78 view .LVU37
 112 0034 1421     		movs	r1, #20
 113              		.loc 1 878 51 view .LVU38
 114 0036 9C46     		mov	ip, r3
 115 0038 6044     		add	r0, r0, ip
 116              	.LVL7:
 117              		.loc 1 878 78 view .LVU39
 118 003a FFF7FEFF 		bl	__aeabi_uidiv
 119              	.LVL8:
 879:Drivers/STM32F0xx_HAL_Driver/Src/stm32f0xx_hal_dma.c ****   hdma->DmaBaseAddress = DMA1;
 120              		.loc 1 879 24 view .LVU40
 121 003e 094B     		ldr	r3, .L5+8
 122              	.LBE11:
 123              	.LBE10:
 185:Drivers/STM32F0xx_HAL_Driver/Src/stm32f0xx_hal_dma.c **** 
 124              		.loc 1 185 15 view .LVU41
 125 0040 0122     		movs	r2, #1
 126              	.LBB14:
 127              	.LBB12:
 128              		.loc 1 879 24 view .LVU42
 129 0042 E363     		str	r3, [r4, #60]
 130              	.LBE12:
 131              	.LBE14:
 182:Drivers/STM32F0xx_HAL_Driver/Src/stm32f0xx_hal_dma.c **** 
 132              		.loc 1 182 19 view .LVU43
 133 0044 0023     		movs	r3, #0
 134              	.LBB15:
 135              	.LBB13:
 878:Drivers/STM32F0xx_HAL_Driver/Src/stm32f0xx_hal_dma.c ****   hdma->DmaBaseAddress = DMA1;
 136              		.loc 1 878 133 view .LVU44
 137 0046 8000     		lsls	r0, r0, #2
 878:Drivers/STM32F0xx_HAL_Driver/Src/stm32f0xx_hal_dma.c ****   hdma->DmaBaseAddress = DMA1;
 138              		.loc 1 878 22 view .LVU45
 139 0048 2064     		str	r0, [r4, #64]
ARM GAS  C:\Users\maari\AppData\Local\Temp\ccCUEZrL.s 			page 19


 140              		.loc 1 879 3 is_stmt 1 view .LVU46
 141              	.LVL9:
 142              		.loc 1 879 3 is_stmt 0 view .LVU47
 143              	.LBE13:
 144              	.LBE15:
 182:Drivers/STM32F0xx_HAL_Driver/Src/stm32f0xx_hal_dma.c **** 
 145              		.loc 1 182 3 is_stmt 1 view .LVU48
 190:Drivers/STM32F0xx_HAL_Driver/Src/stm32f0xx_hal_dma.c **** }
 146              		.loc 1 190 10 is_stmt 0 view .LVU49
 147 004a 0020     		movs	r0, #0
 182:Drivers/STM32F0xx_HAL_Driver/Src/stm32f0xx_hal_dma.c **** 
 148              		.loc 1 182 19 view .LVU50
 149 004c A363     		str	r3, [r4, #56]
 185:Drivers/STM32F0xx_HAL_Driver/Src/stm32f0xx_hal_dma.c **** 
 150              		.loc 1 185 3 is_stmt 1 view .LVU51
 185:Drivers/STM32F0xx_HAL_Driver/Src/stm32f0xx_hal_dma.c **** 
 151              		.loc 1 185 15 is_stmt 0 view .LVU52
 152 004e 6255     		strb	r2, [r4, r5]
 188:Drivers/STM32F0xx_HAL_Driver/Src/stm32f0xx_hal_dma.c **** 
 153              		.loc 1 188 3 is_stmt 1 view .LVU53
 188:Drivers/STM32F0xx_HAL_Driver/Src/stm32f0xx_hal_dma.c **** 
 154              		.loc 1 188 14 is_stmt 0 view .LVU54
 155 0050 1F32     		adds	r2, r2, #31
 156 0052 A354     		strb	r3, [r4, r2]
 190:Drivers/STM32F0xx_HAL_Driver/Src/stm32f0xx_hal_dma.c **** }
 157              		.loc 1 190 3 is_stmt 1 view .LVU55
 158              	.LVL10:
 159              	.L2:
 191:Drivers/STM32F0xx_HAL_Driver/Src/stm32f0xx_hal_dma.c **** 
 160              		.loc 1 191 1 is_stmt 0 view .LVU56
 161              		@ sp needed
 162              	.LVL11:
 191:Drivers/STM32F0xx_HAL_Driver/Src/stm32f0xx_hal_dma.c **** 
 163              		.loc 1 191 1 view .LVU57
 164 0054 70BD     		pop	{r4, r5, r6, pc}
 165              	.LVL12:
 166              	.L3:
 144:Drivers/STM32F0xx_HAL_Driver/Src/stm32f0xx_hal_dma.c ****   }
 167              		.loc 1 144 12 view .LVU58
 168 0056 0120     		movs	r0, #1
 169              	.LVL13:
 144:Drivers/STM32F0xx_HAL_Driver/Src/stm32f0xx_hal_dma.c ****   }
 170              		.loc 1 144 12 view .LVU59
 171 0058 FCE7     		b	.L2
 172              	.L6:
 173 005a C046     		.align	2
 174              	.L5:
 175 005c 0FC0FFFF 		.word	-16369
 176 0060 F8FFFDBF 		.word	-1073872904
 177 0064 00000240 		.word	1073872896
 178              		.cfi_endproc
 179              	.LFE40:
 181              		.section	.text.HAL_DMA_DeInit,"ax",%progbits
 182              		.align	1
 183              		.p2align 2,,3
 184              		.global	HAL_DMA_DeInit
 185              		.syntax unified
ARM GAS  C:\Users\maari\AppData\Local\Temp\ccCUEZrL.s 			page 20


 186              		.code	16
 187              		.thumb_func
 189              	HAL_DMA_DeInit:
 190              	.LVL14:
 191              	.LFB41:
 200:Drivers/STM32F0xx_HAL_Driver/Src/stm32f0xx_hal_dma.c ****   /* Check the DMA handle allocation */
 192              		.loc 1 200 1 is_stmt 1 view -0
 193              		.cfi_startproc
 194              		@ args = 0, pretend = 0, frame = 0
 195              		@ frame_needed = 0, uses_anonymous_args = 0
 202:Drivers/STM32F0xx_HAL_Driver/Src/stm32f0xx_hal_dma.c ****   {
 196              		.loc 1 202 3 view .LVU61
 200:Drivers/STM32F0xx_HAL_Driver/Src/stm32f0xx_hal_dma.c ****   /* Check the DMA handle allocation */
 197              		.loc 1 200 1 is_stmt 0 view .LVU62
 198 0000 70B5     		push	{r4, r5, r6, lr}
 199              	.LCFI1:
 200              		.cfi_def_cfa_offset 16
 201              		.cfi_offset 4, -16
 202              		.cfi_offset 5, -12
 203              		.cfi_offset 6, -8
 204              		.cfi_offset 14, -4
 200:Drivers/STM32F0xx_HAL_Driver/Src/stm32f0xx_hal_dma.c ****   /* Check the DMA handle allocation */
 205              		.loc 1 200 1 view .LVU63
 206 0002 041E     		subs	r4, r0, #0
 202:Drivers/STM32F0xx_HAL_Driver/Src/stm32f0xx_hal_dma.c ****   {
 207              		.loc 1 202 6 view .LVU64
 208 0004 20D0     		beq	.L9
 208:Drivers/STM32F0xx_HAL_Driver/Src/stm32f0xx_hal_dma.c **** 
 209              		.loc 1 208 3 is_stmt 1 view .LVU65
 211:Drivers/STM32F0xx_HAL_Driver/Src/stm32f0xx_hal_dma.c **** 
 210              		.loc 1 211 3 view .LVU66
 211:Drivers/STM32F0xx_HAL_Driver/Src/stm32f0xx_hal_dma.c **** 
 211              		.loc 1 211 23 is_stmt 0 view .LVU67
 212 0006 0126     		movs	r6, #1
 211:Drivers/STM32F0xx_HAL_Driver/Src/stm32f0xx_hal_dma.c **** 
 213              		.loc 1 211 7 view .LVU68
 214 0008 0068     		ldr	r0, [r0]
 215              	.LVL15:
 214:Drivers/STM32F0xx_HAL_Driver/Src/stm32f0xx_hal_dma.c **** 
 216              		.loc 1 214 24 view .LVU69
 217 000a 0025     		movs	r5, #0
 211:Drivers/STM32F0xx_HAL_Driver/Src/stm32f0xx_hal_dma.c **** 
 218              		.loc 1 211 17 view .LVU70
 219 000c 0368     		ldr	r3, [r0]
 220              	.LBB16:
 221              	.LBB17:
 878:Drivers/STM32F0xx_HAL_Driver/Src/stm32f0xx_hal_dma.c ****   hdma->DmaBaseAddress = DMA1;
 222              		.loc 1 878 78 view .LVU71
 223 000e 1421     		movs	r1, #20
 224              	.LBE17:
 225              	.LBE16:
 211:Drivers/STM32F0xx_HAL_Driver/Src/stm32f0xx_hal_dma.c **** 
 226              		.loc 1 211 23 view .LVU72
 227 0010 B343     		bics	r3, r6
 228 0012 0360     		str	r3, [r0]
 214:Drivers/STM32F0xx_HAL_Driver/Src/stm32f0xx_hal_dma.c **** 
 229              		.loc 1 214 3 is_stmt 1 view .LVU73
ARM GAS  C:\Users\maari\AppData\Local\Temp\ccCUEZrL.s 			page 21


 230              	.LBB22:
 231              	.LBB18:
 878:Drivers/STM32F0xx_HAL_Driver/Src/stm32f0xx_hal_dma.c ****   hdma->DmaBaseAddress = DMA1;
 232              		.loc 1 878 51 is_stmt 0 view .LVU74
 233 0014 0D4B     		ldr	r3, .L10
 234              	.LBE18:
 235              	.LBE22:
 214:Drivers/STM32F0xx_HAL_Driver/Src/stm32f0xx_hal_dma.c **** 
 236              		.loc 1 214 24 view .LVU75
 237 0016 0560     		str	r5, [r0]
 217:Drivers/STM32F0xx_HAL_Driver/Src/stm32f0xx_hal_dma.c **** 
 238              		.loc 1 217 3 is_stmt 1 view .LVU76
 239              	.LBB23:
 240              	.LBB19:
 878:Drivers/STM32F0xx_HAL_Driver/Src/stm32f0xx_hal_dma.c ****   hdma->DmaBaseAddress = DMA1;
 241              		.loc 1 878 51 is_stmt 0 view .LVU77
 242 0018 9C46     		mov	ip, r3
 243              	.LBE19:
 244              	.LBE23:
 217:Drivers/STM32F0xx_HAL_Driver/Src/stm32f0xx_hal_dma.c **** 
 245              		.loc 1 217 25 view .LVU78
 246 001a 4560     		str	r5, [r0, #4]
 220:Drivers/STM32F0xx_HAL_Driver/Src/stm32f0xx_hal_dma.c **** 
 247              		.loc 1 220 3 is_stmt 1 view .LVU79
 220:Drivers/STM32F0xx_HAL_Driver/Src/stm32f0xx_hal_dma.c **** 
 248              		.loc 1 220 25 is_stmt 0 view .LVU80
 249 001c 8560     		str	r5, [r0, #8]
 223:Drivers/STM32F0xx_HAL_Driver/Src/stm32f0xx_hal_dma.c **** 
 250              		.loc 1 223 3 is_stmt 1 view .LVU81
 223:Drivers/STM32F0xx_HAL_Driver/Src/stm32f0xx_hal_dma.c **** 
 251              		.loc 1 223 24 is_stmt 0 view .LVU82
 252 001e C560     		str	r5, [r0, #12]
 226:Drivers/STM32F0xx_HAL_Driver/Src/stm32f0xx_hal_dma.c **** 
 253              		.loc 1 226 3 is_stmt 1 view .LVU83
 254              	.LVL16:
 255              	.LBB24:
 256              	.LBI16:
 859:Drivers/STM32F0xx_HAL_Driver/Src/stm32f0xx_hal_dma.c **** {
 257              		.loc 1 859 13 view .LVU84
 258              	.LBB20:
 878:Drivers/STM32F0xx_HAL_Driver/Src/stm32f0xx_hal_dma.c ****   hdma->DmaBaseAddress = DMA1;
 259              		.loc 1 878 3 view .LVU85
 878:Drivers/STM32F0xx_HAL_Driver/Src/stm32f0xx_hal_dma.c ****   hdma->DmaBaseAddress = DMA1;
 260              		.loc 1 878 51 is_stmt 0 view .LVU86
 261 0020 6044     		add	r0, r0, ip
 878:Drivers/STM32F0xx_HAL_Driver/Src/stm32f0xx_hal_dma.c ****   hdma->DmaBaseAddress = DMA1;
 262              		.loc 1 878 78 view .LVU87
 263 0022 FFF7FEFF 		bl	__aeabi_uidiv
 264              	.LVL17:
 878:Drivers/STM32F0xx_HAL_Driver/Src/stm32f0xx_hal_dma.c ****   hdma->DmaBaseAddress = DMA1;
 265              		.loc 1 878 133 view .LVU88
 266 0026 8000     		lsls	r0, r0, #2
 267              	.LBE20:
 268              	.LBE24:
 229:Drivers/STM32F0xx_HAL_Driver/Src/stm32f0xx_hal_dma.c **** 
 269              		.loc 1 229 45 view .LVU89
 270 0028 8640     		lsls	r6, r6, r0
ARM GAS  C:\Users\maari\AppData\Local\Temp\ccCUEZrL.s 			page 22


 271              	.LBB25:
 272              	.LBB21:
 273              		.loc 1 879 24 view .LVU90
 274 002a 094B     		ldr	r3, .L10+4
 878:Drivers/STM32F0xx_HAL_Driver/Src/stm32f0xx_hal_dma.c ****   hdma->DmaBaseAddress = DMA1;
 275              		.loc 1 878 22 view .LVU91
 276 002c 2064     		str	r0, [r4, #64]
 277              		.loc 1 879 3 is_stmt 1 view .LVU92
 278              		.loc 1 879 24 is_stmt 0 view .LVU93
 279 002e E363     		str	r3, [r4, #60]
 280              	.LVL18:
 281              		.loc 1 879 24 view .LVU94
 282              	.LBE21:
 283              	.LBE25:
 229:Drivers/STM32F0xx_HAL_Driver/Src/stm32f0xx_hal_dma.c **** 
 284              		.loc 1 229 3 is_stmt 1 view .LVU95
 229:Drivers/STM32F0xx_HAL_Driver/Src/stm32f0xx_hal_dma.c **** 
 285              		.loc 1 229 30 is_stmt 0 view .LVU96
 286 0030 5E60     		str	r6, [r3, #4]
 232:Drivers/STM32F0xx_HAL_Driver/Src/stm32f0xx_hal_dma.c ****   hdma->XferHalfCpltCallback = NULL;
 287              		.loc 1 232 3 is_stmt 1 view .LVU97
 241:Drivers/STM32F0xx_HAL_Driver/Src/stm32f0xx_hal_dma.c **** 
 288              		.loc 1 241 15 is_stmt 0 view .LVU98
 289 0032 2123     		movs	r3, #33
 246:Drivers/STM32F0xx_HAL_Driver/Src/stm32f0xx_hal_dma.c **** }
 290              		.loc 1 246 10 view .LVU99
 291 0034 0020     		movs	r0, #0
 232:Drivers/STM32F0xx_HAL_Driver/Src/stm32f0xx_hal_dma.c ****   hdma->XferHalfCpltCallback = NULL;
 292              		.loc 1 232 26 view .LVU100
 293 0036 A562     		str	r5, [r4, #40]
 233:Drivers/STM32F0xx_HAL_Driver/Src/stm32f0xx_hal_dma.c ****   hdma->XferErrorCallback = NULL;
 294              		.loc 1 233 3 is_stmt 1 view .LVU101
 233:Drivers/STM32F0xx_HAL_Driver/Src/stm32f0xx_hal_dma.c ****   hdma->XferErrorCallback = NULL;
 295              		.loc 1 233 30 is_stmt 0 view .LVU102
 296 0038 E562     		str	r5, [r4, #44]
 234:Drivers/STM32F0xx_HAL_Driver/Src/stm32f0xx_hal_dma.c ****   hdma->XferAbortCallback = NULL;
 297              		.loc 1 234 3 is_stmt 1 view .LVU103
 234:Drivers/STM32F0xx_HAL_Driver/Src/stm32f0xx_hal_dma.c ****   hdma->XferAbortCallback = NULL;
 298              		.loc 1 234 27 is_stmt 0 view .LVU104
 299 003a 2563     		str	r5, [r4, #48]
 235:Drivers/STM32F0xx_HAL_Driver/Src/stm32f0xx_hal_dma.c **** 
 300              		.loc 1 235 3 is_stmt 1 view .LVU105
 235:Drivers/STM32F0xx_HAL_Driver/Src/stm32f0xx_hal_dma.c **** 
 301              		.loc 1 235 27 is_stmt 0 view .LVU106
 302 003c 6563     		str	r5, [r4, #52]
 238:Drivers/STM32F0xx_HAL_Driver/Src/stm32f0xx_hal_dma.c **** 
 303              		.loc 1 238 3 is_stmt 1 view .LVU107
 238:Drivers/STM32F0xx_HAL_Driver/Src/stm32f0xx_hal_dma.c **** 
 304              		.loc 1 238 19 is_stmt 0 view .LVU108
 305 003e A563     		str	r5, [r4, #56]
 241:Drivers/STM32F0xx_HAL_Driver/Src/stm32f0xx_hal_dma.c **** 
 306              		.loc 1 241 3 is_stmt 1 view .LVU109
 241:Drivers/STM32F0xx_HAL_Driver/Src/stm32f0xx_hal_dma.c **** 
 307              		.loc 1 241 15 is_stmt 0 view .LVU110
 308 0040 E554     		strb	r5, [r4, r3]
 244:Drivers/STM32F0xx_HAL_Driver/Src/stm32f0xx_hal_dma.c **** 
 309              		.loc 1 244 3 is_stmt 1 view .LVU111
ARM GAS  C:\Users\maari\AppData\Local\Temp\ccCUEZrL.s 			page 23


 244:Drivers/STM32F0xx_HAL_Driver/Src/stm32f0xx_hal_dma.c **** 
 310              		.loc 1 244 3 view .LVU112
 311 0042 013B     		subs	r3, r3, #1
 312 0044 E554     		strb	r5, [r4, r3]
 244:Drivers/STM32F0xx_HAL_Driver/Src/stm32f0xx_hal_dma.c **** 
 313              		.loc 1 244 3 view .LVU113
 246:Drivers/STM32F0xx_HAL_Driver/Src/stm32f0xx_hal_dma.c **** }
 314              		.loc 1 246 3 view .LVU114
 315              	.L8:
 247:Drivers/STM32F0xx_HAL_Driver/Src/stm32f0xx_hal_dma.c **** 
 316              		.loc 1 247 1 is_stmt 0 view .LVU115
 317              		@ sp needed
 318              	.LVL19:
 247:Drivers/STM32F0xx_HAL_Driver/Src/stm32f0xx_hal_dma.c **** 
 319              		.loc 1 247 1 view .LVU116
 320 0046 70BD     		pop	{r4, r5, r6, pc}
 321              	.LVL20:
 322              	.L9:
 204:Drivers/STM32F0xx_HAL_Driver/Src/stm32f0xx_hal_dma.c ****   }
 323              		.loc 1 204 12 view .LVU117
 324 0048 0120     		movs	r0, #1
 325              	.LVL21:
 204:Drivers/STM32F0xx_HAL_Driver/Src/stm32f0xx_hal_dma.c ****   }
 326              		.loc 1 204 12 view .LVU118
 327 004a FCE7     		b	.L8
 328              	.L11:
 329              		.align	2
 330              	.L10:
 331 004c F8FFFDBF 		.word	-1073872904
 332 0050 00000240 		.word	1073872896
 333              		.cfi_endproc
 334              	.LFE41:
 336              		.section	.text.HAL_DMA_Start,"ax",%progbits
 337              		.align	1
 338              		.p2align 2,,3
 339              		.global	HAL_DMA_Start
 340              		.syntax unified
 341              		.code	16
 342              		.thumb_func
 344              	HAL_DMA_Start:
 345              	.LVL22:
 346              	.LFB42:
 282:Drivers/STM32F0xx_HAL_Driver/Src/stm32f0xx_hal_dma.c ****   HAL_StatusTypeDef status = HAL_OK;
 347              		.loc 1 282 1 is_stmt 1 view -0
 348              		.cfi_startproc
 349              		@ args = 0, pretend = 0, frame = 0
 350              		@ frame_needed = 0, uses_anonymous_args = 0
 283:Drivers/STM32F0xx_HAL_Driver/Src/stm32f0xx_hal_dma.c **** 
 351              		.loc 1 283 3 view .LVU120
 286:Drivers/STM32F0xx_HAL_Driver/Src/stm32f0xx_hal_dma.c **** 
 352              		.loc 1 286 3 view .LVU121
 289:Drivers/STM32F0xx_HAL_Driver/Src/stm32f0xx_hal_dma.c **** 
 353              		.loc 1 289 3 view .LVU122
 289:Drivers/STM32F0xx_HAL_Driver/Src/stm32f0xx_hal_dma.c **** 
 354              		.loc 1 289 3 view .LVU123
 282:Drivers/STM32F0xx_HAL_Driver/Src/stm32f0xx_hal_dma.c ****   HAL_StatusTypeDef status = HAL_OK;
 355              		.loc 1 282 1 is_stmt 0 view .LVU124
ARM GAS  C:\Users\maari\AppData\Local\Temp\ccCUEZrL.s 			page 24


 356 0000 F0B5     		push	{r4, r5, r6, r7, lr}
 357              	.LCFI2:
 358              		.cfi_def_cfa_offset 20
 359              		.cfi_offset 4, -20
 360              		.cfi_offset 5, -16
 361              		.cfi_offset 6, -12
 362              		.cfi_offset 7, -8
 363              		.cfi_offset 14, -4
 289:Drivers/STM32F0xx_HAL_Driver/Src/stm32f0xx_hal_dma.c **** 
 364              		.loc 1 289 3 view .LVU125
 365 0002 2024     		movs	r4, #32
 366 0004 055D     		ldrb	r5, [r0, r4]
 367 0006 012D     		cmp	r5, #1
 368 0008 08D0     		beq	.L13
 289:Drivers/STM32F0xx_HAL_Driver/Src/stm32f0xx_hal_dma.c **** 
 369              		.loc 1 289 3 is_stmt 1 discriminator 2 view .LVU126
 370 000a 0125     		movs	r5, #1
 291:Drivers/STM32F0xx_HAL_Driver/Src/stm32f0xx_hal_dma.c ****   {
 371              		.loc 1 291 34 is_stmt 0 view .LVU127
 372 000c 2127     		movs	r7, #33
 289:Drivers/STM32F0xx_HAL_Driver/Src/stm32f0xx_hal_dma.c **** 
 373              		.loc 1 289 3 discriminator 2 view .LVU128
 374 000e 0555     		strb	r5, [r0, r4]
 289:Drivers/STM32F0xx_HAL_Driver/Src/stm32f0xx_hal_dma.c **** 
 375              		.loc 1 289 3 is_stmt 1 discriminator 2 view .LVU129
 291:Drivers/STM32F0xx_HAL_Driver/Src/stm32f0xx_hal_dma.c ****   {
 376              		.loc 1 291 3 view .LVU130
 291:Drivers/STM32F0xx_HAL_Driver/Src/stm32f0xx_hal_dma.c ****   {
 377              		.loc 1 291 34 is_stmt 0 view .LVU131
 378 0010 C55D     		ldrb	r5, [r0, r7]
 379 0012 EEB2     		uxtb	r6, r5
 291:Drivers/STM32F0xx_HAL_Driver/Src/stm32f0xx_hal_dma.c ****   {
 380              		.loc 1 291 6 view .LVU132
 381 0014 012D     		cmp	r5, #1
 382 0016 03D0     		beq	.L21
 310:Drivers/STM32F0xx_HAL_Driver/Src/stm32f0xx_hal_dma.c **** 
 383              		.loc 1 310 5 is_stmt 1 view .LVU133
 310:Drivers/STM32F0xx_HAL_Driver/Src/stm32f0xx_hal_dma.c **** 
 384              		.loc 1 310 5 view .LVU134
 385 0018 0023     		movs	r3, #0
 386              	.LVL23:
 310:Drivers/STM32F0xx_HAL_Driver/Src/stm32f0xx_hal_dma.c **** 
 387              		.loc 1 310 5 is_stmt 0 view .LVU135
 388 001a 0355     		strb	r3, [r0, r4]
 310:Drivers/STM32F0xx_HAL_Driver/Src/stm32f0xx_hal_dma.c **** 
 389              		.loc 1 310 5 is_stmt 1 view .LVU136
 313:Drivers/STM32F0xx_HAL_Driver/Src/stm32f0xx_hal_dma.c ****   }
 390              		.loc 1 313 5 view .LVU137
 391              	.LVL24:
 392              	.L13:
 289:Drivers/STM32F0xx_HAL_Driver/Src/stm32f0xx_hal_dma.c **** 
 393              		.loc 1 289 3 is_stmt 0 discriminator 1 view .LVU138
 394 001c 0220     		movs	r0, #2
 395              	.LVL25:
 396              	.L17:
 317:Drivers/STM32F0xx_HAL_Driver/Src/stm32f0xx_hal_dma.c **** 
 397              		.loc 1 317 1 view .LVU139
ARM GAS  C:\Users\maari\AppData\Local\Temp\ccCUEZrL.s 			page 25


 398              		@ sp needed
 399 001e F0BD     		pop	{r4, r5, r6, r7, pc}
 400              	.LVL26:
 401              	.L21:
 294:Drivers/STM32F0xx_HAL_Driver/Src/stm32f0xx_hal_dma.c **** 
 402              		.loc 1 294 5 is_stmt 1 view .LVU140
 294:Drivers/STM32F0xx_HAL_Driver/Src/stm32f0xx_hal_dma.c **** 
 403              		.loc 1 294 17 is_stmt 0 view .LVU141
 404 0020 1E3C     		subs	r4, r4, #30
 405 0022 C455     		strb	r4, [r0, r7]
 296:Drivers/STM32F0xx_HAL_Driver/Src/stm32f0xx_hal_dma.c **** 
 406              		.loc 1 296 5 is_stmt 1 view .LVU142
 296:Drivers/STM32F0xx_HAL_Driver/Src/stm32f0xx_hal_dma.c **** 
 407              		.loc 1 296 21 is_stmt 0 view .LVU143
 408 0024 0024     		movs	r4, #0
 409 0026 8463     		str	r4, [r0, #56]
 299:Drivers/STM32F0xx_HAL_Driver/Src/stm32f0xx_hal_dma.c **** 
 410              		.loc 1 299 5 is_stmt 1 view .LVU144
 299:Drivers/STM32F0xx_HAL_Driver/Src/stm32f0xx_hal_dma.c **** 
 411              		.loc 1 299 9 is_stmt 0 view .LVU145
 412 0028 0468     		ldr	r4, [r0]
 413              	.LBB26:
 414              	.LBB27:
 828:Drivers/STM32F0xx_HAL_Driver/Src/stm32f0xx_hal_dma.c **** 
 415              		.loc 1 828 47 view .LVU146
 416 002a 076C     		ldr	r7, [r0, #64]
 417              	.LBE27:
 418              	.LBE26:
 299:Drivers/STM32F0xx_HAL_Driver/Src/stm32f0xx_hal_dma.c **** 
 419              		.loc 1 299 19 view .LVU147
 420 002c 2568     		ldr	r5, [r4]
 299:Drivers/STM32F0xx_HAL_Driver/Src/stm32f0xx_hal_dma.c **** 
 421              		.loc 1 299 25 view .LVU148
 422 002e B543     		bics	r5, r6
 423              	.LBB31:
 424              	.LBB28:
 828:Drivers/STM32F0xx_HAL_Driver/Src/stm32f0xx_hal_dma.c **** 
 425              		.loc 1 828 47 view .LVU149
 426 0030 BE40     		lsls	r6, r6, r7
 427              	.LBE28:
 428              	.LBE31:
 299:Drivers/STM32F0xx_HAL_Driver/Src/stm32f0xx_hal_dma.c **** 
 429              		.loc 1 299 25 view .LVU150
 430 0032 2560     		str	r5, [r4]
 302:Drivers/STM32F0xx_HAL_Driver/Src/stm32f0xx_hal_dma.c **** 
 431              		.loc 1 302 5 is_stmt 1 view .LVU151
 432              	.LVL27:
 433              	.LBB32:
 434              	.LBI26:
 825:Drivers/STM32F0xx_HAL_Driver/Src/stm32f0xx_hal_dma.c **** {
 435              		.loc 1 825 13 view .LVU152
 436              	.LBB29:
 828:Drivers/STM32F0xx_HAL_Driver/Src/stm32f0xx_hal_dma.c **** 
 437              		.loc 1 828 3 view .LVU153
 828:Drivers/STM32F0xx_HAL_Driver/Src/stm32f0xx_hal_dma.c **** 
 438              		.loc 1 828 7 is_stmt 0 view .LVU154
 439 0034 C56B     		ldr	r5, [r0, #60]
ARM GAS  C:\Users\maari\AppData\Local\Temp\ccCUEZrL.s 			page 26


 828:Drivers/STM32F0xx_HAL_Driver/Src/stm32f0xx_hal_dma.c **** 
 440              		.loc 1 828 31 view .LVU155
 441 0036 6E60     		str	r6, [r5, #4]
 831:Drivers/STM32F0xx_HAL_Driver/Src/stm32f0xx_hal_dma.c **** 
 442              		.loc 1 831 3 is_stmt 1 view .LVU156
 831:Drivers/STM32F0xx_HAL_Driver/Src/stm32f0xx_hal_dma.c **** 
 443              		.loc 1 831 25 is_stmt 0 view .LVU157
 444 0038 6360     		str	r3, [r4, #4]
 834:Drivers/STM32F0xx_HAL_Driver/Src/stm32f0xx_hal_dma.c ****   {
 445              		.loc 1 834 3 is_stmt 1 view .LVU158
 834:Drivers/STM32F0xx_HAL_Driver/Src/stm32f0xx_hal_dma.c ****   {
 446              		.loc 1 834 6 is_stmt 0 view .LVU159
 447 003a 4368     		ldr	r3, [r0, #4]
 448              	.LVL28:
 834:Drivers/STM32F0xx_HAL_Driver/Src/stm32f0xx_hal_dma.c ****   {
 449              		.loc 1 834 6 view .LVU160
 450 003c 102B     		cmp	r3, #16
 451 003e 07D0     		beq	.L22
 846:Drivers/STM32F0xx_HAL_Driver/Src/stm32f0xx_hal_dma.c **** 
 452              		.loc 1 846 5 is_stmt 1 view .LVU161
 846:Drivers/STM32F0xx_HAL_Driver/Src/stm32f0xx_hal_dma.c **** 
 453              		.loc 1 846 26 is_stmt 0 view .LVU162
 454 0040 A160     		str	r1, [r4, #8]
 455              	.LVL29:
 849:Drivers/STM32F0xx_HAL_Driver/Src/stm32f0xx_hal_dma.c ****   }
 456              		.loc 1 849 5 is_stmt 1 view .LVU163
 849:Drivers/STM32F0xx_HAL_Driver/Src/stm32f0xx_hal_dma.c ****   }
 457              		.loc 1 849 26 is_stmt 0 view .LVU164
 458 0042 E260     		str	r2, [r4, #12]
 459              	.L16:
 460              	.LVL30:
 849:Drivers/STM32F0xx_HAL_Driver/Src/stm32f0xx_hal_dma.c ****   }
 461              		.loc 1 849 26 view .LVU165
 462              	.LBE29:
 463              	.LBE32:
 305:Drivers/STM32F0xx_HAL_Driver/Src/stm32f0xx_hal_dma.c ****   }
 464              		.loc 1 305 5 is_stmt 1 view .LVU166
 305:Drivers/STM32F0xx_HAL_Driver/Src/stm32f0xx_hal_dma.c ****   }
 465              		.loc 1 305 25 is_stmt 0 view .LVU167
 466 0044 0122     		movs	r2, #1
 467              	.LVL31:
 305:Drivers/STM32F0xx_HAL_Driver/Src/stm32f0xx_hal_dma.c ****   }
 468              		.loc 1 305 19 view .LVU168
 469 0046 2368     		ldr	r3, [r4]
 283:Drivers/STM32F0xx_HAL_Driver/Src/stm32f0xx_hal_dma.c **** 
 470              		.loc 1 283 21 view .LVU169
 471 0048 0020     		movs	r0, #0
 472              	.LVL32:
 305:Drivers/STM32F0xx_HAL_Driver/Src/stm32f0xx_hal_dma.c ****   }
 473              		.loc 1 305 25 view .LVU170
 474 004a 1343     		orrs	r3, r2
 475 004c 2360     		str	r3, [r4]
 476 004e E6E7     		b	.L17
 477              	.LVL33:
 478              	.L22:
 479              	.LBB33:
 480              	.LBB30:
ARM GAS  C:\Users\maari\AppData\Local\Temp\ccCUEZrL.s 			page 27


 837:Drivers/STM32F0xx_HAL_Driver/Src/stm32f0xx_hal_dma.c **** 
 481              		.loc 1 837 5 is_stmt 1 view .LVU171
 837:Drivers/STM32F0xx_HAL_Driver/Src/stm32f0xx_hal_dma.c **** 
 482              		.loc 1 837 26 is_stmt 0 view .LVU172
 483 0050 A260     		str	r2, [r4, #8]
 484              	.LVL34:
 840:Drivers/STM32F0xx_HAL_Driver/Src/stm32f0xx_hal_dma.c ****   }
 485              		.loc 1 840 5 is_stmt 1 view .LVU173
 840:Drivers/STM32F0xx_HAL_Driver/Src/stm32f0xx_hal_dma.c ****   }
 486              		.loc 1 840 26 is_stmt 0 view .LVU174
 487 0052 E160     		str	r1, [r4, #12]
 488 0054 F6E7     		b	.L16
 489              	.LBE30:
 490              	.LBE33:
 491              		.cfi_endproc
 492              	.LFE42:
 494 0056 C046     		.section	.text.HAL_DMA_Start_IT,"ax",%progbits
 495              		.align	1
 496              		.p2align 2,,3
 497              		.global	HAL_DMA_Start_IT
 498              		.syntax unified
 499              		.code	16
 500              		.thumb_func
 502              	HAL_DMA_Start_IT:
 503              	.LVL35:
 504              	.LFB43:
 329:Drivers/STM32F0xx_HAL_Driver/Src/stm32f0xx_hal_dma.c ****   HAL_StatusTypeDef status = HAL_OK;
 505              		.loc 1 329 1 is_stmt 1 view -0
 506              		.cfi_startproc
 507              		@ args = 0, pretend = 0, frame = 0
 508              		@ frame_needed = 0, uses_anonymous_args = 0
 330:Drivers/STM32F0xx_HAL_Driver/Src/stm32f0xx_hal_dma.c **** 
 509              		.loc 1 330 3 view .LVU176
 333:Drivers/STM32F0xx_HAL_Driver/Src/stm32f0xx_hal_dma.c **** 
 510              		.loc 1 333 3 view .LVU177
 336:Drivers/STM32F0xx_HAL_Driver/Src/stm32f0xx_hal_dma.c **** 
 511              		.loc 1 336 3 view .LVU178
 336:Drivers/STM32F0xx_HAL_Driver/Src/stm32f0xx_hal_dma.c **** 
 512              		.loc 1 336 3 view .LVU179
 329:Drivers/STM32F0xx_HAL_Driver/Src/stm32f0xx_hal_dma.c ****   HAL_StatusTypeDef status = HAL_OK;
 513              		.loc 1 329 1 is_stmt 0 view .LVU180
 514 0000 F0B5     		push	{r4, r5, r6, r7, lr}
 515              	.LCFI3:
 516              		.cfi_def_cfa_offset 20
 517              		.cfi_offset 4, -20
 518              		.cfi_offset 5, -16
 519              		.cfi_offset 6, -12
 520              		.cfi_offset 7, -8
 521              		.cfi_offset 14, -4
 336:Drivers/STM32F0xx_HAL_Driver/Src/stm32f0xx_hal_dma.c **** 
 522              		.loc 1 336 3 view .LVU181
 523 0002 2024     		movs	r4, #32
 524 0004 055D     		ldrb	r5, [r0, r4]
 525 0006 012D     		cmp	r5, #1
 526 0008 08D0     		beq	.L24
 336:Drivers/STM32F0xx_HAL_Driver/Src/stm32f0xx_hal_dma.c **** 
 527              		.loc 1 336 3 is_stmt 1 discriminator 2 view .LVU182
ARM GAS  C:\Users\maari\AppData\Local\Temp\ccCUEZrL.s 			page 28


 528 000a 0125     		movs	r5, #1
 338:Drivers/STM32F0xx_HAL_Driver/Src/stm32f0xx_hal_dma.c ****   {
 529              		.loc 1 338 34 is_stmt 0 view .LVU183
 530 000c 2127     		movs	r7, #33
 336:Drivers/STM32F0xx_HAL_Driver/Src/stm32f0xx_hal_dma.c **** 
 531              		.loc 1 336 3 discriminator 2 view .LVU184
 532 000e 0555     		strb	r5, [r0, r4]
 336:Drivers/STM32F0xx_HAL_Driver/Src/stm32f0xx_hal_dma.c **** 
 533              		.loc 1 336 3 is_stmt 1 discriminator 2 view .LVU185
 338:Drivers/STM32F0xx_HAL_Driver/Src/stm32f0xx_hal_dma.c ****   {
 534              		.loc 1 338 3 view .LVU186
 338:Drivers/STM32F0xx_HAL_Driver/Src/stm32f0xx_hal_dma.c ****   {
 535              		.loc 1 338 34 is_stmt 0 view .LVU187
 536 0010 C55D     		ldrb	r5, [r0, r7]
 537 0012 EEB2     		uxtb	r6, r5
 338:Drivers/STM32F0xx_HAL_Driver/Src/stm32f0xx_hal_dma.c ****   {
 538              		.loc 1 338 6 view .LVU188
 539 0014 012D     		cmp	r5, #1
 540 0016 03D0     		beq	.L34
 369:Drivers/STM32F0xx_HAL_Driver/Src/stm32f0xx_hal_dma.c **** 
 541              		.loc 1 369 5 is_stmt 1 view .LVU189
 369:Drivers/STM32F0xx_HAL_Driver/Src/stm32f0xx_hal_dma.c **** 
 542              		.loc 1 369 5 view .LVU190
 543 0018 0023     		movs	r3, #0
 544              	.LVL36:
 369:Drivers/STM32F0xx_HAL_Driver/Src/stm32f0xx_hal_dma.c **** 
 545              		.loc 1 369 5 is_stmt 0 view .LVU191
 546 001a 0355     		strb	r3, [r0, r4]
 369:Drivers/STM32F0xx_HAL_Driver/Src/stm32f0xx_hal_dma.c **** 
 547              		.loc 1 369 5 is_stmt 1 view .LVU192
 372:Drivers/STM32F0xx_HAL_Driver/Src/stm32f0xx_hal_dma.c ****   }
 548              		.loc 1 372 5 view .LVU193
 549              	.LVL37:
 550              	.L24:
 336:Drivers/STM32F0xx_HAL_Driver/Src/stm32f0xx_hal_dma.c **** 
 551              		.loc 1 336 3 is_stmt 0 discriminator 1 view .LVU194
 552 001c 0220     		movs	r0, #2
 553              	.LVL38:
 554              	.L30:
 376:Drivers/STM32F0xx_HAL_Driver/Src/stm32f0xx_hal_dma.c **** 
 555              		.loc 1 376 1 view .LVU195
 556              		@ sp needed
 557 001e F0BD     		pop	{r4, r5, r6, r7, pc}
 558              	.LVL39:
 559              	.L34:
 341:Drivers/STM32F0xx_HAL_Driver/Src/stm32f0xx_hal_dma.c **** 
 560              		.loc 1 341 5 is_stmt 1 view .LVU196
 341:Drivers/STM32F0xx_HAL_Driver/Src/stm32f0xx_hal_dma.c **** 
 561              		.loc 1 341 17 is_stmt 0 view .LVU197
 562 0020 1E3C     		subs	r4, r4, #30
 563 0022 C455     		strb	r4, [r0, r7]
 343:Drivers/STM32F0xx_HAL_Driver/Src/stm32f0xx_hal_dma.c **** 
 564              		.loc 1 343 5 is_stmt 1 view .LVU198
 343:Drivers/STM32F0xx_HAL_Driver/Src/stm32f0xx_hal_dma.c **** 
 565              		.loc 1 343 21 is_stmt 0 view .LVU199
 566 0024 0024     		movs	r4, #0
 567 0026 8463     		str	r4, [r0, #56]
ARM GAS  C:\Users\maari\AppData\Local\Temp\ccCUEZrL.s 			page 29


 346:Drivers/STM32F0xx_HAL_Driver/Src/stm32f0xx_hal_dma.c **** 
 568              		.loc 1 346 5 is_stmt 1 view .LVU200
 346:Drivers/STM32F0xx_HAL_Driver/Src/stm32f0xx_hal_dma.c **** 
 569              		.loc 1 346 9 is_stmt 0 view .LVU201
 570 0028 0468     		ldr	r4, [r0]
 571              	.LBB34:
 572              	.LBB35:
 828:Drivers/STM32F0xx_HAL_Driver/Src/stm32f0xx_hal_dma.c **** 
 573              		.loc 1 828 47 view .LVU202
 574 002a 076C     		ldr	r7, [r0, #64]
 575              	.LBE35:
 576              	.LBE34:
 346:Drivers/STM32F0xx_HAL_Driver/Src/stm32f0xx_hal_dma.c **** 
 577              		.loc 1 346 19 view .LVU203
 578 002c 2568     		ldr	r5, [r4]
 346:Drivers/STM32F0xx_HAL_Driver/Src/stm32f0xx_hal_dma.c **** 
 579              		.loc 1 346 25 view .LVU204
 580 002e B543     		bics	r5, r6
 581              	.LBB41:
 582              	.LBB36:
 828:Drivers/STM32F0xx_HAL_Driver/Src/stm32f0xx_hal_dma.c **** 
 583              		.loc 1 828 47 view .LVU205
 584 0030 BE40     		lsls	r6, r6, r7
 585              	.LBE36:
 586              	.LBE41:
 346:Drivers/STM32F0xx_HAL_Driver/Src/stm32f0xx_hal_dma.c **** 
 587              		.loc 1 346 25 view .LVU206
 588 0032 2560     		str	r5, [r4]
 349:Drivers/STM32F0xx_HAL_Driver/Src/stm32f0xx_hal_dma.c **** 
 589              		.loc 1 349 5 is_stmt 1 view .LVU207
 590              	.LVL40:
 591              	.LBB42:
 592              	.LBI34:
 825:Drivers/STM32F0xx_HAL_Driver/Src/stm32f0xx_hal_dma.c **** {
 593              		.loc 1 825 13 view .LVU208
 594              	.LBB37:
 828:Drivers/STM32F0xx_HAL_Driver/Src/stm32f0xx_hal_dma.c **** 
 595              		.loc 1 828 3 view .LVU209
 828:Drivers/STM32F0xx_HAL_Driver/Src/stm32f0xx_hal_dma.c **** 
 596              		.loc 1 828 7 is_stmt 0 view .LVU210
 597 0034 C56B     		ldr	r5, [r0, #60]
 828:Drivers/STM32F0xx_HAL_Driver/Src/stm32f0xx_hal_dma.c **** 
 598              		.loc 1 828 31 view .LVU211
 599 0036 6E60     		str	r6, [r5, #4]
 831:Drivers/STM32F0xx_HAL_Driver/Src/stm32f0xx_hal_dma.c **** 
 600              		.loc 1 831 3 is_stmt 1 view .LVU212
 831:Drivers/STM32F0xx_HAL_Driver/Src/stm32f0xx_hal_dma.c **** 
 601              		.loc 1 831 25 is_stmt 0 view .LVU213
 602 0038 6360     		str	r3, [r4, #4]
 834:Drivers/STM32F0xx_HAL_Driver/Src/stm32f0xx_hal_dma.c ****   {
 603              		.loc 1 834 3 is_stmt 1 view .LVU214
 834:Drivers/STM32F0xx_HAL_Driver/Src/stm32f0xx_hal_dma.c ****   {
 604              		.loc 1 834 6 is_stmt 0 view .LVU215
 605 003a 4368     		ldr	r3, [r0, #4]
 606              	.LVL41:
 834:Drivers/STM32F0xx_HAL_Driver/Src/stm32f0xx_hal_dma.c ****   {
 607              		.loc 1 834 6 view .LVU216
ARM GAS  C:\Users\maari\AppData\Local\Temp\ccCUEZrL.s 			page 30


 608 003c 102B     		cmp	r3, #16
 609 003e 0ED0     		beq	.L35
 846:Drivers/STM32F0xx_HAL_Driver/Src/stm32f0xx_hal_dma.c **** 
 610              		.loc 1 846 5 is_stmt 1 view .LVU217
 611              	.LBE37:
 612              	.LBE42:
 353:Drivers/STM32F0xx_HAL_Driver/Src/stm32f0xx_hal_dma.c ****     {
 613              		.loc 1 353 8 is_stmt 0 view .LVU218
 614 0040 C36A     		ldr	r3, [r0, #44]
 615              	.LBB43:
 616              	.LBB38:
 846:Drivers/STM32F0xx_HAL_Driver/Src/stm32f0xx_hal_dma.c **** 
 617              		.loc 1 846 26 view .LVU219
 618 0042 A160     		str	r1, [r4, #8]
 619              	.LVL42:
 849:Drivers/STM32F0xx_HAL_Driver/Src/stm32f0xx_hal_dma.c ****   }
 620              		.loc 1 849 5 is_stmt 1 view .LVU220
 849:Drivers/STM32F0xx_HAL_Driver/Src/stm32f0xx_hal_dma.c ****   }
 621              		.loc 1 849 26 is_stmt 0 view .LVU221
 622 0044 E260     		str	r2, [r4, #12]
 623              	.LVL43:
 849:Drivers/STM32F0xx_HAL_Driver/Src/stm32f0xx_hal_dma.c ****   }
 624              		.loc 1 849 26 view .LVU222
 625              	.LBE38:
 626              	.LBE43:
 353:Drivers/STM32F0xx_HAL_Driver/Src/stm32f0xx_hal_dma.c ****     {
 627              		.loc 1 353 5 is_stmt 1 view .LVU223
 353:Drivers/STM32F0xx_HAL_Driver/Src/stm32f0xx_hal_dma.c ****     {
 628              		.loc 1 353 8 is_stmt 0 view .LVU224
 629 0046 002B     		cmp	r3, #0
 630 0048 0ED0     		beq	.L28
 631              	.L36:
 355:Drivers/STM32F0xx_HAL_Driver/Src/stm32f0xx_hal_dma.c ****     }
 632              		.loc 1 355 7 is_stmt 1 view .LVU225
 355:Drivers/STM32F0xx_HAL_Driver/Src/stm32f0xx_hal_dma.c ****     }
 633              		.loc 1 355 27 is_stmt 0 view .LVU226
 634 004a 0E22     		movs	r2, #14
 635              	.LVL44:
 355:Drivers/STM32F0xx_HAL_Driver/Src/stm32f0xx_hal_dma.c ****     }
 636              		.loc 1 355 21 view .LVU227
 637 004c 2368     		ldr	r3, [r4]
 355:Drivers/STM32F0xx_HAL_Driver/Src/stm32f0xx_hal_dma.c ****     }
 638              		.loc 1 355 27 view .LVU228
 639 004e 1343     		orrs	r3, r2
 640 0050 2360     		str	r3, [r4]
 641              	.L29:
 364:Drivers/STM32F0xx_HAL_Driver/Src/stm32f0xx_hal_dma.c ****   }
 642              		.loc 1 364 5 is_stmt 1 view .LVU229
 364:Drivers/STM32F0xx_HAL_Driver/Src/stm32f0xx_hal_dma.c ****   }
 643              		.loc 1 364 25 is_stmt 0 view .LVU230
 644 0052 0122     		movs	r2, #1
 364:Drivers/STM32F0xx_HAL_Driver/Src/stm32f0xx_hal_dma.c ****   }
 645              		.loc 1 364 19 view .LVU231
 646 0054 2368     		ldr	r3, [r4]
 330:Drivers/STM32F0xx_HAL_Driver/Src/stm32f0xx_hal_dma.c **** 
 647              		.loc 1 330 21 view .LVU232
 648 0056 0020     		movs	r0, #0
ARM GAS  C:\Users\maari\AppData\Local\Temp\ccCUEZrL.s 			page 31


 649              	.LVL45:
 364:Drivers/STM32F0xx_HAL_Driver/Src/stm32f0xx_hal_dma.c ****   }
 650              		.loc 1 364 25 view .LVU233
 651 0058 1343     		orrs	r3, r2
 652 005a 2360     		str	r3, [r4]
 653 005c DFE7     		b	.L30
 654              	.LVL46:
 655              	.L35:
 656              	.LBB44:
 657              	.LBB39:
 837:Drivers/STM32F0xx_HAL_Driver/Src/stm32f0xx_hal_dma.c **** 
 658              		.loc 1 837 5 is_stmt 1 view .LVU234
 659              	.LBE39:
 660              	.LBE44:
 353:Drivers/STM32F0xx_HAL_Driver/Src/stm32f0xx_hal_dma.c ****     {
 661              		.loc 1 353 8 is_stmt 0 view .LVU235
 662 005e C36A     		ldr	r3, [r0, #44]
 663              	.LBB45:
 664              	.LBB40:
 837:Drivers/STM32F0xx_HAL_Driver/Src/stm32f0xx_hal_dma.c **** 
 665              		.loc 1 837 26 view .LVU236
 666 0060 A260     		str	r2, [r4, #8]
 667              	.LVL47:
 840:Drivers/STM32F0xx_HAL_Driver/Src/stm32f0xx_hal_dma.c ****   }
 668              		.loc 1 840 5 is_stmt 1 view .LVU237
 840:Drivers/STM32F0xx_HAL_Driver/Src/stm32f0xx_hal_dma.c ****   }
 669              		.loc 1 840 26 is_stmt 0 view .LVU238
 670 0062 E160     		str	r1, [r4, #12]
 671              	.LVL48:
 840:Drivers/STM32F0xx_HAL_Driver/Src/stm32f0xx_hal_dma.c ****   }
 672              		.loc 1 840 26 view .LVU239
 673              	.LBE40:
 674              	.LBE45:
 353:Drivers/STM32F0xx_HAL_Driver/Src/stm32f0xx_hal_dma.c ****     {
 675              		.loc 1 353 5 is_stmt 1 view .LVU240
 353:Drivers/STM32F0xx_HAL_Driver/Src/stm32f0xx_hal_dma.c ****     {
 676              		.loc 1 353 8 is_stmt 0 view .LVU241
 677 0064 002B     		cmp	r3, #0
 678 0066 F0D1     		bne	.L36
 679              	.L28:
 359:Drivers/STM32F0xx_HAL_Driver/Src/stm32f0xx_hal_dma.c ****       hdma->Instance->CCR &= ~DMA_IT_HT;
 680              		.loc 1 359 7 is_stmt 1 view .LVU242
 359:Drivers/STM32F0xx_HAL_Driver/Src/stm32f0xx_hal_dma.c ****       hdma->Instance->CCR &= ~DMA_IT_HT;
 681              		.loc 1 359 27 is_stmt 0 view .LVU243
 682 0068 0A22     		movs	r2, #10
 683              	.LVL49:
 359:Drivers/STM32F0xx_HAL_Driver/Src/stm32f0xx_hal_dma.c ****       hdma->Instance->CCR &= ~DMA_IT_HT;
 684              		.loc 1 359 21 view .LVU244
 685 006a 2368     		ldr	r3, [r4]
 359:Drivers/STM32F0xx_HAL_Driver/Src/stm32f0xx_hal_dma.c ****       hdma->Instance->CCR &= ~DMA_IT_HT;
 686              		.loc 1 359 27 view .LVU245
 687 006c 1343     		orrs	r3, r2
 688 006e 2360     		str	r3, [r4]
 360:Drivers/STM32F0xx_HAL_Driver/Src/stm32f0xx_hal_dma.c ****     }
 689              		.loc 1 360 7 is_stmt 1 view .LVU246
 360:Drivers/STM32F0xx_HAL_Driver/Src/stm32f0xx_hal_dma.c ****     }
 690              		.loc 1 360 21 is_stmt 0 view .LVU247
ARM GAS  C:\Users\maari\AppData\Local\Temp\ccCUEZrL.s 			page 32


 691 0070 2368     		ldr	r3, [r4]
 360:Drivers/STM32F0xx_HAL_Driver/Src/stm32f0xx_hal_dma.c ****     }
 692              		.loc 1 360 27 view .LVU248
 693 0072 063A     		subs	r2, r2, #6
 694 0074 9343     		bics	r3, r2
 695 0076 2360     		str	r3, [r4]
 696 0078 EBE7     		b	.L29
 697              		.cfi_endproc
 698              	.LFE43:
 700 007a C046     		.section	.text.HAL_DMA_Abort,"ax",%progbits
 701              		.align	1
 702              		.p2align 2,,3
 703              		.global	HAL_DMA_Abort
 704              		.syntax unified
 705              		.code	16
 706              		.thumb_func
 708              	HAL_DMA_Abort:
 709              	.LVL50:
 710              	.LFB44:
 385:Drivers/STM32F0xx_HAL_Driver/Src/stm32f0xx_hal_dma.c ****   if (hdma->State != HAL_DMA_STATE_BUSY)
 711              		.loc 1 385 1 is_stmt 1 view -0
 712              		.cfi_startproc
 713              		@ args = 0, pretend = 0, frame = 0
 714              		@ frame_needed = 0, uses_anonymous_args = 0
 386:Drivers/STM32F0xx_HAL_Driver/Src/stm32f0xx_hal_dma.c ****   {
 715              		.loc 1 386 3 view .LVU250
 386:Drivers/STM32F0xx_HAL_Driver/Src/stm32f0xx_hal_dma.c ****   {
 716              		.loc 1 386 11 is_stmt 0 view .LVU251
 717 0000 2122     		movs	r2, #33
 385:Drivers/STM32F0xx_HAL_Driver/Src/stm32f0xx_hal_dma.c ****   if (hdma->State != HAL_DMA_STATE_BUSY)
 718              		.loc 1 385 1 view .LVU252
 719 0002 30B5     		push	{r4, r5, lr}
 720              	.LCFI4:
 721              		.cfi_def_cfa_offset 12
 722              		.cfi_offset 4, -12
 723              		.cfi_offset 5, -8
 724              		.cfi_offset 14, -4
 386:Drivers/STM32F0xx_HAL_Driver/Src/stm32f0xx_hal_dma.c ****   {
 725              		.loc 1 386 11 view .LVU253
 726 0004 815C     		ldrb	r1, [r0, r2]
 385:Drivers/STM32F0xx_HAL_Driver/Src/stm32f0xx_hal_dma.c ****   if (hdma->State != HAL_DMA_STATE_BUSY)
 727              		.loc 1 385 1 view .LVU254
 728 0006 0300     		movs	r3, r0
 386:Drivers/STM32F0xx_HAL_Driver/Src/stm32f0xx_hal_dma.c ****   {
 729              		.loc 1 386 6 view .LVU255
 730 0008 0229     		cmp	r1, #2
 731 000a 06D0     		beq	.L38
 389:Drivers/STM32F0xx_HAL_Driver/Src/stm32f0xx_hal_dma.c **** 
 732              		.loc 1 389 5 is_stmt 1 view .LVU256
 389:Drivers/STM32F0xx_HAL_Driver/Src/stm32f0xx_hal_dma.c **** 
 733              		.loc 1 389 21 is_stmt 0 view .LVU257
 734 000c 1D3A     		subs	r2, r2, #29
 735 000e 8263     		str	r2, [r0, #56]
 392:Drivers/STM32F0xx_HAL_Driver/Src/stm32f0xx_hal_dma.c **** 
 736              		.loc 1 392 5 is_stmt 1 view .LVU258
 392:Drivers/STM32F0xx_HAL_Driver/Src/stm32f0xx_hal_dma.c **** 
 737              		.loc 1 392 5 view .LVU259
ARM GAS  C:\Users\maari\AppData\Local\Temp\ccCUEZrL.s 			page 33


 392:Drivers/STM32F0xx_HAL_Driver/Src/stm32f0xx_hal_dma.c **** 
 738              		.loc 1 392 5 view .LVU260
 394:Drivers/STM32F0xx_HAL_Driver/Src/stm32f0xx_hal_dma.c ****   }
 739              		.loc 1 394 5 view .LVU261
 394:Drivers/STM32F0xx_HAL_Driver/Src/stm32f0xx_hal_dma.c ****   }
 740              		.loc 1 394 12 is_stmt 0 view .LVU262
 741 0010 0120     		movs	r0, #1
 742              	.LVL51:
 743              	.L39:
 414:Drivers/STM32F0xx_HAL_Driver/Src/stm32f0xx_hal_dma.c **** 
 744              		.loc 1 414 1 view .LVU263
 745              		@ sp needed
 392:Drivers/STM32F0xx_HAL_Driver/Src/stm32f0xx_hal_dma.c **** 
 746              		.loc 1 392 5 view .LVU264
 747 0012 2022     		movs	r2, #32
 748 0014 0021     		movs	r1, #0
 749 0016 9954     		strb	r1, [r3, r2]
 414:Drivers/STM32F0xx_HAL_Driver/Src/stm32f0xx_hal_dma.c **** 
 750              		.loc 1 414 1 view .LVU265
 751 0018 30BD     		pop	{r4, r5, pc}
 752              	.LVL52:
 753              	.L38:
 399:Drivers/STM32F0xx_HAL_Driver/Src/stm32f0xx_hal_dma.c **** 
 754              		.loc 1 399 5 is_stmt 1 view .LVU266
 399:Drivers/STM32F0xx_HAL_Driver/Src/stm32f0xx_hal_dma.c **** 
 755              		.loc 1 399 25 is_stmt 0 view .LVU267
 756 001a 0E24     		movs	r4, #14
 399:Drivers/STM32F0xx_HAL_Driver/Src/stm32f0xx_hal_dma.c **** 
 757              		.loc 1 399 9 view .LVU268
 758 001c 0168     		ldr	r1, [r0]
 399:Drivers/STM32F0xx_HAL_Driver/Src/stm32f0xx_hal_dma.c **** 
 759              		.loc 1 399 19 view .LVU269
 760 001e 0868     		ldr	r0, [r1]
 761              	.LVL53:
 399:Drivers/STM32F0xx_HAL_Driver/Src/stm32f0xx_hal_dma.c **** 
 762              		.loc 1 399 25 view .LVU270
 763 0020 A043     		bics	r0, r4
 764 0022 0860     		str	r0, [r1]
 402:Drivers/STM32F0xx_HAL_Driver/Src/stm32f0xx_hal_dma.c **** 
 765              		.loc 1 402 5 is_stmt 1 view .LVU271
 402:Drivers/STM32F0xx_HAL_Driver/Src/stm32f0xx_hal_dma.c **** 
 766              		.loc 1 402 25 is_stmt 0 view .LVU272
 767 0024 0120     		movs	r0, #1
 405:Drivers/STM32F0xx_HAL_Driver/Src/stm32f0xx_hal_dma.c ****   }
 768              		.loc 1 405 48 view .LVU273
 769 0026 0500     		movs	r5, r0
 402:Drivers/STM32F0xx_HAL_Driver/Src/stm32f0xx_hal_dma.c **** 
 770              		.loc 1 402 19 view .LVU274
 771 0028 0C68     		ldr	r4, [r1]
 402:Drivers/STM32F0xx_HAL_Driver/Src/stm32f0xx_hal_dma.c **** 
 772              		.loc 1 402 25 view .LVU275
 773 002a 8443     		bics	r4, r0
 774 002c 0C60     		str	r4, [r1]
 405:Drivers/STM32F0xx_HAL_Driver/Src/stm32f0xx_hal_dma.c ****   }
 775              		.loc 1 405 5 is_stmt 1 view .LVU276
 405:Drivers/STM32F0xx_HAL_Driver/Src/stm32f0xx_hal_dma.c ****   }
 776              		.loc 1 405 48 is_stmt 0 view .LVU277
ARM GAS  C:\Users\maari\AppData\Local\Temp\ccCUEZrL.s 			page 34


 777 002e 1C6C     		ldr	r4, [r3, #64]
 405:Drivers/STM32F0xx_HAL_Driver/Src/stm32f0xx_hal_dma.c ****   }
 778              		.loc 1 405 9 view .LVU278
 779 0030 D96B     		ldr	r1, [r3, #60]
 405:Drivers/STM32F0xx_HAL_Driver/Src/stm32f0xx_hal_dma.c ****   }
 780              		.loc 1 405 48 view .LVU279
 781 0032 A540     		lsls	r5, r5, r4
 405:Drivers/STM32F0xx_HAL_Driver/Src/stm32f0xx_hal_dma.c ****   }
 782              		.loc 1 405 32 view .LVU280
 783 0034 4D60     		str	r5, [r1, #4]
 408:Drivers/STM32F0xx_HAL_Driver/Src/stm32f0xx_hal_dma.c **** 
 784              		.loc 1 408 3 is_stmt 1 view .LVU281
 408:Drivers/STM32F0xx_HAL_Driver/Src/stm32f0xx_hal_dma.c **** 
 785              		.loc 1 408 15 is_stmt 0 view .LVU282
 786 0036 9854     		strb	r0, [r3, r2]
 411:Drivers/STM32F0xx_HAL_Driver/Src/stm32f0xx_hal_dma.c **** 
 787              		.loc 1 411 3 is_stmt 1 view .LVU283
 411:Drivers/STM32F0xx_HAL_Driver/Src/stm32f0xx_hal_dma.c **** 
 788              		.loc 1 411 3 view .LVU284
 411:Drivers/STM32F0xx_HAL_Driver/Src/stm32f0xx_hal_dma.c **** 
 789              		.loc 1 411 3 view .LVU285
 413:Drivers/STM32F0xx_HAL_Driver/Src/stm32f0xx_hal_dma.c **** }
 790              		.loc 1 413 3 view .LVU286
 413:Drivers/STM32F0xx_HAL_Driver/Src/stm32f0xx_hal_dma.c **** }
 791              		.loc 1 413 10 is_stmt 0 view .LVU287
 792 0038 0020     		movs	r0, #0
 793 003a EAE7     		b	.L39
 794              		.cfi_endproc
 795              	.LFE44:
 797              		.section	.text.HAL_DMA_Abort_IT,"ax",%progbits
 798              		.align	1
 799              		.p2align 2,,3
 800              		.global	HAL_DMA_Abort_IT
 801              		.syntax unified
 802              		.code	16
 803              		.thumb_func
 805              	HAL_DMA_Abort_IT:
 806              	.LVL54:
 807              	.LFB45:
 423:Drivers/STM32F0xx_HAL_Driver/Src/stm32f0xx_hal_dma.c ****   HAL_StatusTypeDef status = HAL_OK;
 808              		.loc 1 423 1 is_stmt 1 view -0
 809              		.cfi_startproc
 810              		@ args = 0, pretend = 0, frame = 0
 811              		@ frame_needed = 0, uses_anonymous_args = 0
 424:Drivers/STM32F0xx_HAL_Driver/Src/stm32f0xx_hal_dma.c **** 
 812              		.loc 1 424 3 view .LVU289
 426:Drivers/STM32F0xx_HAL_Driver/Src/stm32f0xx_hal_dma.c ****   {
 813              		.loc 1 426 3 view .LVU290
 426:Drivers/STM32F0xx_HAL_Driver/Src/stm32f0xx_hal_dma.c ****   {
 814              		.loc 1 426 33 is_stmt 0 view .LVU291
 815 0000 2123     		movs	r3, #33
 423:Drivers/STM32F0xx_HAL_Driver/Src/stm32f0xx_hal_dma.c ****   HAL_StatusTypeDef status = HAL_OK;
 816              		.loc 1 423 1 view .LVU292
 817 0002 70B5     		push	{r4, r5, r6, lr}
 818              	.LCFI5:
 819              		.cfi_def_cfa_offset 16
 820              		.cfi_offset 4, -16
ARM GAS  C:\Users\maari\AppData\Local\Temp\ccCUEZrL.s 			page 35


 821              		.cfi_offset 5, -12
 822              		.cfi_offset 6, -8
 823              		.cfi_offset 14, -4
 426:Drivers/STM32F0xx_HAL_Driver/Src/stm32f0xx_hal_dma.c ****   {
 824              		.loc 1 426 33 view .LVU293
 825 0004 C25C     		ldrb	r2, [r0, r3]
 426:Drivers/STM32F0xx_HAL_Driver/Src/stm32f0xx_hal_dma.c ****   {
 826              		.loc 1 426 6 view .LVU294
 827 0006 022A     		cmp	r2, #2
 828 0008 03D0     		beq	.L41
 429:Drivers/STM32F0xx_HAL_Driver/Src/stm32f0xx_hal_dma.c **** 
 829              		.loc 1 429 5 is_stmt 1 view .LVU295
 429:Drivers/STM32F0xx_HAL_Driver/Src/stm32f0xx_hal_dma.c **** 
 830              		.loc 1 429 21 is_stmt 0 view .LVU296
 831 000a 1D3B     		subs	r3, r3, #29
 832 000c 8363     		str	r3, [r0, #56]
 431:Drivers/STM32F0xx_HAL_Driver/Src/stm32f0xx_hal_dma.c ****   }
 833              		.loc 1 431 5 is_stmt 1 view .LVU297
 834              	.LVL55:
 431:Drivers/STM32F0xx_HAL_Driver/Src/stm32f0xx_hal_dma.c ****   }
 835              		.loc 1 431 12 is_stmt 0 view .LVU298
 836 000e 0120     		movs	r0, #1
 837              	.LVL56:
 838              	.L42:
 457:Drivers/STM32F0xx_HAL_Driver/Src/stm32f0xx_hal_dma.c **** }
 839              		.loc 1 457 3 is_stmt 1 view .LVU299
 458:Drivers/STM32F0xx_HAL_Driver/Src/stm32f0xx_hal_dma.c **** 
 840              		.loc 1 458 1 is_stmt 0 view .LVU300
 841              		@ sp needed
 842 0010 70BD     		pop	{r4, r5, r6, pc}
 843              	.LVL57:
 844              	.L41:
 437:Drivers/STM32F0xx_HAL_Driver/Src/stm32f0xx_hal_dma.c **** 
 845              		.loc 1 437 5 is_stmt 1 view .LVU301
 437:Drivers/STM32F0xx_HAL_Driver/Src/stm32f0xx_hal_dma.c **** 
 846              		.loc 1 437 25 is_stmt 0 view .LVU302
 847 0012 0E24     		movs	r4, #14
 437:Drivers/STM32F0xx_HAL_Driver/Src/stm32f0xx_hal_dma.c **** 
 848              		.loc 1 437 9 view .LVU303
 849 0014 0268     		ldr	r2, [r0]
 437:Drivers/STM32F0xx_HAL_Driver/Src/stm32f0xx_hal_dma.c **** 
 850              		.loc 1 437 19 view .LVU304
 851 0016 1168     		ldr	r1, [r2]
 437:Drivers/STM32F0xx_HAL_Driver/Src/stm32f0xx_hal_dma.c **** 
 852              		.loc 1 437 25 view .LVU305
 853 0018 A143     		bics	r1, r4
 854 001a 1160     		str	r1, [r2]
 440:Drivers/STM32F0xx_HAL_Driver/Src/stm32f0xx_hal_dma.c **** 
 855              		.loc 1 440 5 is_stmt 1 view .LVU306
 440:Drivers/STM32F0xx_HAL_Driver/Src/stm32f0xx_hal_dma.c **** 
 856              		.loc 1 440 25 is_stmt 0 view .LVU307
 857 001c 0121     		movs	r1, #1
 443:Drivers/STM32F0xx_HAL_Driver/Src/stm32f0xx_hal_dma.c **** 
 858              		.loc 1 443 47 view .LVU308
 859 001e 0D00     		movs	r5, r1
 440:Drivers/STM32F0xx_HAL_Driver/Src/stm32f0xx_hal_dma.c **** 
 860              		.loc 1 440 19 view .LVU309
ARM GAS  C:\Users\maari\AppData\Local\Temp\ccCUEZrL.s 			page 36


 861 0020 1468     		ldr	r4, [r2]
 440:Drivers/STM32F0xx_HAL_Driver/Src/stm32f0xx_hal_dma.c **** 
 862              		.loc 1 440 25 view .LVU310
 863 0022 8C43     		bics	r4, r1
 864 0024 1460     		str	r4, [r2]
 443:Drivers/STM32F0xx_HAL_Driver/Src/stm32f0xx_hal_dma.c **** 
 865              		.loc 1 443 5 is_stmt 1 view .LVU311
 443:Drivers/STM32F0xx_HAL_Driver/Src/stm32f0xx_hal_dma.c **** 
 866              		.loc 1 443 47 is_stmt 0 view .LVU312
 867 0026 046C     		ldr	r4, [r0, #64]
 443:Drivers/STM32F0xx_HAL_Driver/Src/stm32f0xx_hal_dma.c **** 
 868              		.loc 1 443 9 view .LVU313
 869 0028 C26B     		ldr	r2, [r0, #60]
 443:Drivers/STM32F0xx_HAL_Driver/Src/stm32f0xx_hal_dma.c **** 
 870              		.loc 1 443 47 view .LVU314
 871 002a A540     		lsls	r5, r5, r4
 443:Drivers/STM32F0xx_HAL_Driver/Src/stm32f0xx_hal_dma.c **** 
 872              		.loc 1 443 32 view .LVU315
 873 002c 5560     		str	r5, [r2, #4]
 446:Drivers/STM32F0xx_HAL_Driver/Src/stm32f0xx_hal_dma.c **** 
 874              		.loc 1 446 5 is_stmt 1 view .LVU316
 446:Drivers/STM32F0xx_HAL_Driver/Src/stm32f0xx_hal_dma.c **** 
 875              		.loc 1 446 17 is_stmt 0 view .LVU317
 876 002e C154     		strb	r1, [r0, r3]
 449:Drivers/STM32F0xx_HAL_Driver/Src/stm32f0xx_hal_dma.c **** 
 877              		.loc 1 449 5 is_stmt 1 view .LVU318
 449:Drivers/STM32F0xx_HAL_Driver/Src/stm32f0xx_hal_dma.c **** 
 878              		.loc 1 449 5 view .LVU319
 879 0030 0022     		movs	r2, #0
 880 0032 2023     		movs	r3, #32
 881 0034 C254     		strb	r2, [r0, r3]
 449:Drivers/STM32F0xx_HAL_Driver/Src/stm32f0xx_hal_dma.c **** 
 882              		.loc 1 449 5 view .LVU320
 452:Drivers/STM32F0xx_HAL_Driver/Src/stm32f0xx_hal_dma.c ****     {
 883              		.loc 1 452 5 view .LVU321
 452:Drivers/STM32F0xx_HAL_Driver/Src/stm32f0xx_hal_dma.c ****     {
 884              		.loc 1 452 13 is_stmt 0 view .LVU322
 885 0036 436B     		ldr	r3, [r0, #52]
 452:Drivers/STM32F0xx_HAL_Driver/Src/stm32f0xx_hal_dma.c ****     {
 886              		.loc 1 452 8 view .LVU323
 887 0038 002B     		cmp	r3, #0
 888 003a 00D0     		beq	.L43
 454:Drivers/STM32F0xx_HAL_Driver/Src/stm32f0xx_hal_dma.c ****     }
 889              		.loc 1 454 7 is_stmt 1 view .LVU324
 890 003c 9847     		blx	r3
 891              	.LVL58:
 892              	.L43:
 424:Drivers/STM32F0xx_HAL_Driver/Src/stm32f0xx_hal_dma.c **** 
 893              		.loc 1 424 21 is_stmt 0 view .LVU325
 894 003e 0020     		movs	r0, #0
 895 0040 E6E7     		b	.L42
 896              		.cfi_endproc
 897              	.LFE45:
 899 0042 C046     		.section	.text.HAL_DMA_PollForTransfer,"ax",%progbits
 900              		.align	1
 901              		.p2align 2,,3
 902              		.global	HAL_DMA_PollForTransfer
ARM GAS  C:\Users\maari\AppData\Local\Temp\ccCUEZrL.s 			page 37


 903              		.syntax unified
 904              		.code	16
 905              		.thumb_func
 907              	HAL_DMA_PollForTransfer:
 908              	.LVL59:
 909              	.LFB46:
 469:Drivers/STM32F0xx_HAL_Driver/Src/stm32f0xx_hal_dma.c ****   uint32_t temp;
 910              		.loc 1 469 1 is_stmt 1 view -0
 911              		.cfi_startproc
 912              		@ args = 0, pretend = 0, frame = 0
 913              		@ frame_needed = 0, uses_anonymous_args = 0
 470:Drivers/STM32F0xx_HAL_Driver/Src/stm32f0xx_hal_dma.c ****   uint32_t tickstart = 0U;
 914              		.loc 1 470 3 view .LVU327
 471:Drivers/STM32F0xx_HAL_Driver/Src/stm32f0xx_hal_dma.c **** 
 915              		.loc 1 471 3 view .LVU328
 473:Drivers/STM32F0xx_HAL_Driver/Src/stm32f0xx_hal_dma.c ****   {
 916              		.loc 1 473 3 view .LVU329
 469:Drivers/STM32F0xx_HAL_Driver/Src/stm32f0xx_hal_dma.c ****   uint32_t temp;
 917              		.loc 1 469 1 is_stmt 0 view .LVU330
 918 0000 F8B5     		push	{r3, r4, r5, r6, r7, lr}
 919              	.LCFI6:
 920              		.cfi_def_cfa_offset 24
 921              		.cfi_offset 3, -24
 922              		.cfi_offset 4, -20
 923              		.cfi_offset 5, -16
 924              		.cfi_offset 6, -12
 925              		.cfi_offset 7, -8
 926              		.cfi_offset 14, -4
 927 0002 4746     		mov	r7, r8
 928 0004 CE46     		mov	lr, r9
 473:Drivers/STM32F0xx_HAL_Driver/Src/stm32f0xx_hal_dma.c ****   {
 929              		.loc 1 473 33 view .LVU331
 930 0006 2123     		movs	r3, #33
 469:Drivers/STM32F0xx_HAL_Driver/Src/stm32f0xx_hal_dma.c ****   uint32_t temp;
 931              		.loc 1 469 1 view .LVU332
 932 0008 80B5     		push	{r7, lr}
 933              	.LCFI7:
 934              		.cfi_def_cfa_offset 32
 935              		.cfi_offset 8, -32
 936              		.cfi_offset 9, -28
 473:Drivers/STM32F0xx_HAL_Driver/Src/stm32f0xx_hal_dma.c ****   {
 937              		.loc 1 473 33 view .LVU333
 938 000a C35C     		ldrb	r3, [r0, r3]
 469:Drivers/STM32F0xx_HAL_Driver/Src/stm32f0xx_hal_dma.c ****   uint32_t temp;
 939              		.loc 1 469 1 view .LVU334
 940 000c 0400     		movs	r4, r0
 941 000e 0E00     		movs	r6, r1
 942 0010 1700     		movs	r7, r2
 473:Drivers/STM32F0xx_HAL_Driver/Src/stm32f0xx_hal_dma.c ****   {
 943              		.loc 1 473 33 view .LVU335
 944 0012 DDB2     		uxtb	r5, r3
 473:Drivers/STM32F0xx_HAL_Driver/Src/stm32f0xx_hal_dma.c ****   {
 945              		.loc 1 473 6 view .LVU336
 946 0014 022B     		cmp	r3, #2
 947 0016 09D0     		beq	.L48
 476:Drivers/STM32F0xx_HAL_Driver/Src/stm32f0xx_hal_dma.c ****     __HAL_UNLOCK(hdma);
 948              		.loc 1 476 5 is_stmt 1 view .LVU337
ARM GAS  C:\Users\maari\AppData\Local\Temp\ccCUEZrL.s 			page 38


 476:Drivers/STM32F0xx_HAL_Driver/Src/stm32f0xx_hal_dma.c ****     __HAL_UNLOCK(hdma);
 949              		.loc 1 476 21 is_stmt 0 view .LVU338
 950 0018 0423     		movs	r3, #4
 477:Drivers/STM32F0xx_HAL_Driver/Src/stm32f0xx_hal_dma.c ****     return HAL_ERROR;
 951              		.loc 1 477 5 view .LVU339
 952 001a 0022     		movs	r2, #0
 953              	.LVL60:
 476:Drivers/STM32F0xx_HAL_Driver/Src/stm32f0xx_hal_dma.c ****     __HAL_UNLOCK(hdma);
 954              		.loc 1 476 21 view .LVU340
 955 001c 8363     		str	r3, [r0, #56]
 477:Drivers/STM32F0xx_HAL_Driver/Src/stm32f0xx_hal_dma.c ****     return HAL_ERROR;
 956              		.loc 1 477 5 is_stmt 1 view .LVU341
 477:Drivers/STM32F0xx_HAL_Driver/Src/stm32f0xx_hal_dma.c ****     return HAL_ERROR;
 957              		.loc 1 477 5 view .LVU342
 958 001e 1C33     		adds	r3, r3, #28
 959 0020 C254     		strb	r2, [r0, r3]
 477:Drivers/STM32F0xx_HAL_Driver/Src/stm32f0xx_hal_dma.c ****     return HAL_ERROR;
 960              		.loc 1 477 5 view .LVU343
 478:Drivers/STM32F0xx_HAL_Driver/Src/stm32f0xx_hal_dma.c ****   }
 961              		.loc 1 478 5 view .LVU344
 962              	.LVL61:
 963              	.L49:
 478:Drivers/STM32F0xx_HAL_Driver/Src/stm32f0xx_hal_dma.c ****   }
 964              		.loc 1 478 12 is_stmt 0 view .LVU345
 965 0022 0120     		movs	r0, #1
 966              	.L51:
 561:Drivers/STM32F0xx_HAL_Driver/Src/stm32f0xx_hal_dma.c **** 
 967              		.loc 1 561 1 view .LVU346
 968              		@ sp needed
 969              	.LVL62:
 970              	.LVL63:
 971              	.LVL64:
 561:Drivers/STM32F0xx_HAL_Driver/Src/stm32f0xx_hal_dma.c **** 
 972              		.loc 1 561 1 view .LVU347
 973 0024 C0BC     		pop	{r6, r7}
 974 0026 B946     		mov	r9, r7
 975 0028 B046     		mov	r8, r6
 976 002a F8BD     		pop	{r3, r4, r5, r6, r7, pc}
 977              	.LVL65:
 978              	.L48:
 482:Drivers/STM32F0xx_HAL_Driver/Src/stm32f0xx_hal_dma.c ****   {
 979              		.loc 1 482 3 is_stmt 1 view .LVU348
 482:Drivers/STM32F0xx_HAL_Driver/Src/stm32f0xx_hal_dma.c ****   {
 980              		.loc 1 482 21 is_stmt 0 view .LVU349
 981 002c 0368     		ldr	r3, [r0]
 482:Drivers/STM32F0xx_HAL_Driver/Src/stm32f0xx_hal_dma.c ****   {
 982              		.loc 1 482 31 view .LVU350
 983 002e 1B68     		ldr	r3, [r3]
 482:Drivers/STM32F0xx_HAL_Driver/Src/stm32f0xx_hal_dma.c ****   {
 984              		.loc 1 482 6 view .LVU351
 985 0030 9B06     		lsls	r3, r3, #26
 986 0032 22D4     		bmi	.L67
 489:Drivers/STM32F0xx_HAL_Driver/Src/stm32f0xx_hal_dma.c ****   {
 987              		.loc 1 489 3 is_stmt 1 view .LVU352
 492:Drivers/STM32F0xx_HAL_Driver/Src/stm32f0xx_hal_dma.c ****   }
 988              		.loc 1 492 32 is_stmt 0 view .LVU353
 989 0034 036C     		ldr	r3, [r0, #64]
ARM GAS  C:\Users\maari\AppData\Local\Temp\ccCUEZrL.s 			page 39


 489:Drivers/STM32F0xx_HAL_Driver/Src/stm32f0xx_hal_dma.c ****   {
 990              		.loc 1 489 6 view .LVU354
 991 0036 0029     		cmp	r1, #0
 992 0038 23D1     		bne	.L52
 993              	.L66:
 497:Drivers/STM32F0xx_HAL_Driver/Src/stm32f0xx_hal_dma.c ****   }
 994              		.loc 1 497 10 view .LVU355
 995 003a 9D40     		lsls	r5, r5, r3
 996              	.LVL66:
 501:Drivers/STM32F0xx_HAL_Driver/Src/stm32f0xx_hal_dma.c **** 
 997              		.loc 1 501 3 is_stmt 1 view .LVU356
 501:Drivers/STM32F0xx_HAL_Driver/Src/stm32f0xx_hal_dma.c **** 
 998              		.loc 1 501 15 is_stmt 0 view .LVU357
 999 003c FFF7FEFF 		bl	HAL_GetTick
 1000              	.LVL67:
 505:Drivers/STM32F0xx_HAL_Driver/Src/stm32f0xx_hal_dma.c ****     {
 1001              		.loc 1 505 61 view .LVU358
 1002 0040 0823     		movs	r3, #8
 501:Drivers/STM32F0xx_HAL_Driver/Src/stm32f0xx_hal_dma.c **** 
 1003              		.loc 1 501 15 view .LVU359
 1004 0042 8046     		mov	r8, r0
 1005              	.LVL68:
 503:Drivers/STM32F0xx_HAL_Driver/Src/stm32f0xx_hal_dma.c ****   {
 1006              		.loc 1 503 3 is_stmt 1 view .LVU360
 505:Drivers/STM32F0xx_HAL_Driver/Src/stm32f0xx_hal_dma.c ****     {
 1007              		.loc 1 505 61 is_stmt 0 view .LVU361
 1008 0044 9946     		mov	r9, r3
 1009 0046 7B1C     		adds	r3, r7, #1
 1010 0048 2CD1     		bne	.L54
 1011 004a 0820     		movs	r0, #8
 1012              	.LVL69:
 505:Drivers/STM32F0xx_HAL_Driver/Src/stm32f0xx_hal_dma.c ****     {
 1013              		.loc 1 505 68 view .LVU362
 1014 004c 216C     		ldr	r1, [r4, #64]
 503:Drivers/STM32F0xx_HAL_Driver/Src/stm32f0xx_hal_dma.c ****   {
 1015              		.loc 1 503 24 view .LVU363
 1016 004e E36B     		ldr	r3, [r4, #60]
 505:Drivers/STM32F0xx_HAL_Driver/Src/stm32f0xx_hal_dma.c ****     {
 1017              		.loc 1 505 61 view .LVU364
 1018 0050 8840     		lsls	r0, r0, r1
 1019 0052 02E0     		b	.L57
 1020              	.L68:
 505:Drivers/STM32F0xx_HAL_Driver/Src/stm32f0xx_hal_dma.c ****     {
 1021              		.loc 1 505 5 is_stmt 1 view .LVU365
 505:Drivers/STM32F0xx_HAL_Driver/Src/stm32f0xx_hal_dma.c ****     {
 1022              		.loc 1 505 39 is_stmt 0 view .LVU366
 1023 0054 1A68     		ldr	r2, [r3]
 505:Drivers/STM32F0xx_HAL_Driver/Src/stm32f0xx_hal_dma.c ****     {
 1024              		.loc 1 505 8 view .LVU367
 1025 0056 1042     		tst	r0, r2
 1026 0058 15D1     		bne	.L56
 1027              	.L57:
 503:Drivers/STM32F0xx_HAL_Driver/Src/stm32f0xx_hal_dma.c ****   {
 1028              		.loc 1 503 16 is_stmt 1 view .LVU368
 503:Drivers/STM32F0xx_HAL_Driver/Src/stm32f0xx_hal_dma.c ****   {
 1029              		.loc 1 503 40 is_stmt 0 view .LVU369
 1030 005a 1A68     		ldr	r2, [r3]
ARM GAS  C:\Users\maari\AppData\Local\Temp\ccCUEZrL.s 			page 40


 503:Drivers/STM32F0xx_HAL_Driver/Src/stm32f0xx_hal_dma.c ****   {
 1031              		.loc 1 503 16 view .LVU370
 1032 005c 2A42     		tst	r2, r5
 1033 005e F9D0     		beq	.L68
 1034              	.L55:
 542:Drivers/STM32F0xx_HAL_Driver/Src/stm32f0xx_hal_dma.c ****   {
 1035              		.loc 1 542 3 is_stmt 1 view .LVU371
 542:Drivers/STM32F0xx_HAL_Driver/Src/stm32f0xx_hal_dma.c ****   {
 1036              		.loc 1 542 6 is_stmt 0 view .LVU372
 1037 0060 002E     		cmp	r6, #0
 1038 0062 1BD1     		bne	.L62
 545:Drivers/STM32F0xx_HAL_Driver/Src/stm32f0xx_hal_dma.c **** 
 1039              		.loc 1 545 5 is_stmt 1 view .LVU373
 545:Drivers/STM32F0xx_HAL_Driver/Src/stm32f0xx_hal_dma.c **** 
 1040              		.loc 1 545 47 is_stmt 0 view .LVU374
 1041 0064 0222     		movs	r2, #2
 1042 0066 8A40     		lsls	r2, r2, r1
 545:Drivers/STM32F0xx_HAL_Driver/Src/stm32f0xx_hal_dma.c **** 
 1043              		.loc 1 545 32 view .LVU375
 1044 0068 5A60     		str	r2, [r3, #4]
 549:Drivers/STM32F0xx_HAL_Driver/Src/stm32f0xx_hal_dma.c ****   }
 1045              		.loc 1 549 5 is_stmt 1 view .LVU376
 549:Drivers/STM32F0xx_HAL_Driver/Src/stm32f0xx_hal_dma.c ****   }
 1046              		.loc 1 549 17 is_stmt 0 view .LVU377
 1047 006a 2123     		movs	r3, #33
 1048 006c 0122     		movs	r2, #1
 1049 006e E254     		strb	r2, [r4, r3]
 1050              	.L63:
 558:Drivers/STM32F0xx_HAL_Driver/Src/stm32f0xx_hal_dma.c **** 
 1051              		.loc 1 558 3 is_stmt 1 view .LVU378
 558:Drivers/STM32F0xx_HAL_Driver/Src/stm32f0xx_hal_dma.c **** 
 1052              		.loc 1 558 3 view .LVU379
 1053 0070 2023     		movs	r3, #32
 1054 0072 0022     		movs	r2, #0
 560:Drivers/STM32F0xx_HAL_Driver/Src/stm32f0xx_hal_dma.c **** }
 1055              		.loc 1 560 10 is_stmt 0 view .LVU380
 1056 0074 0020     		movs	r0, #0
 558:Drivers/STM32F0xx_HAL_Driver/Src/stm32f0xx_hal_dma.c **** 
 1057              		.loc 1 558 3 view .LVU381
 1058 0076 E254     		strb	r2, [r4, r3]
 558:Drivers/STM32F0xx_HAL_Driver/Src/stm32f0xx_hal_dma.c **** 
 1059              		.loc 1 558 3 is_stmt 1 view .LVU382
 560:Drivers/STM32F0xx_HAL_Driver/Src/stm32f0xx_hal_dma.c **** }
 1060              		.loc 1 560 3 view .LVU383
 560:Drivers/STM32F0xx_HAL_Driver/Src/stm32f0xx_hal_dma.c **** }
 1061              		.loc 1 560 10 is_stmt 0 view .LVU384
 1062 0078 D4E7     		b	.L51
 1063              	.LVL70:
 1064              	.L67:
 484:Drivers/STM32F0xx_HAL_Driver/Src/stm32f0xx_hal_dma.c ****     return HAL_ERROR;
 1065              		.loc 1 484 5 is_stmt 1 view .LVU385
 484:Drivers/STM32F0xx_HAL_Driver/Src/stm32f0xx_hal_dma.c ****     return HAL_ERROR;
 1066              		.loc 1 484 21 is_stmt 0 view .LVU386
 1067 007a 8023     		movs	r3, #128
 1068 007c 5B00     		lsls	r3, r3, #1
 1069 007e 8363     		str	r3, [r0, #56]
 485:Drivers/STM32F0xx_HAL_Driver/Src/stm32f0xx_hal_dma.c ****   }
ARM GAS  C:\Users\maari\AppData\Local\Temp\ccCUEZrL.s 			page 41


 1070              		.loc 1 485 5 is_stmt 1 view .LVU387
 485:Drivers/STM32F0xx_HAL_Driver/Src/stm32f0xx_hal_dma.c ****   }
 1071              		.loc 1 485 12 is_stmt 0 view .LVU388
 1072 0080 CFE7     		b	.L49
 1073              	.L52:
 497:Drivers/STM32F0xx_HAL_Driver/Src/stm32f0xx_hal_dma.c ****   }
 1074              		.loc 1 497 5 is_stmt 1 view .LVU389
 497:Drivers/STM32F0xx_HAL_Driver/Src/stm32f0xx_hal_dma.c ****   }
 1075              		.loc 1 497 10 is_stmt 0 view .LVU390
 1076 0082 0425     		movs	r5, #4
 1077 0084 D9E7     		b	.L66
 1078              	.LVL71:
 1079              	.L56:
 510:Drivers/STM32F0xx_HAL_Driver/Src/stm32f0xx_hal_dma.c **** 
 1080              		.loc 1 510 7 is_stmt 1 view .LVU391
 510:Drivers/STM32F0xx_HAL_Driver/Src/stm32f0xx_hal_dma.c **** 
 1081              		.loc 1 510 49 is_stmt 0 view .LVU392
 1082 0086 0122     		movs	r2, #1
 1083 0088 1000     		movs	r0, r2
 1084 008a 8840     		lsls	r0, r0, r1
 510:Drivers/STM32F0xx_HAL_Driver/Src/stm32f0xx_hal_dma.c **** 
 1085              		.loc 1 510 34 view .LVU393
 1086 008c 5860     		str	r0, [r3, #4]
 513:Drivers/STM32F0xx_HAL_Driver/Src/stm32f0xx_hal_dma.c **** 
 1087              		.loc 1 513 7 is_stmt 1 view .LVU394
 516:Drivers/STM32F0xx_HAL_Driver/Src/stm32f0xx_hal_dma.c **** 
 1088              		.loc 1 516 19 is_stmt 0 view .LVU395
 1089 008e 2123     		movs	r3, #33
 513:Drivers/STM32F0xx_HAL_Driver/Src/stm32f0xx_hal_dma.c **** 
 1090              		.loc 1 513 23 view .LVU396
 1091 0090 A263     		str	r2, [r4, #56]
 516:Drivers/STM32F0xx_HAL_Driver/Src/stm32f0xx_hal_dma.c **** 
 1092              		.loc 1 516 7 is_stmt 1 view .LVU397
 516:Drivers/STM32F0xx_HAL_Driver/Src/stm32f0xx_hal_dma.c **** 
 1093              		.loc 1 516 19 is_stmt 0 view .LVU398
 1094 0092 E254     		strb	r2, [r4, r3]
 519:Drivers/STM32F0xx_HAL_Driver/Src/stm32f0xx_hal_dma.c **** 
 1095              		.loc 1 519 7 is_stmt 1 view .LVU399
 519:Drivers/STM32F0xx_HAL_Driver/Src/stm32f0xx_hal_dma.c **** 
 1096              		.loc 1 519 7 view .LVU400
 1097 0094 0022     		movs	r2, #0
 1098 0096 013B     		subs	r3, r3, #1
 1099 0098 E254     		strb	r2, [r4, r3]
 519:Drivers/STM32F0xx_HAL_Driver/Src/stm32f0xx_hal_dma.c **** 
 1100              		.loc 1 519 7 view .LVU401
 521:Drivers/STM32F0xx_HAL_Driver/Src/stm32f0xx_hal_dma.c ****     }
 1101              		.loc 1 521 7 view .LVU402
 521:Drivers/STM32F0xx_HAL_Driver/Src/stm32f0xx_hal_dma.c ****     }
 1102              		.loc 1 521 14 is_stmt 0 view .LVU403
 1103 009a C2E7     		b	.L49
 1104              	.L62:
 554:Drivers/STM32F0xx_HAL_Driver/Src/stm32f0xx_hal_dma.c ****   }
 1105              		.loc 1 554 5 is_stmt 1 view .LVU404
 554:Drivers/STM32F0xx_HAL_Driver/Src/stm32f0xx_hal_dma.c ****   }
 1106              		.loc 1 554 47 is_stmt 0 view .LVU405
 1107 009c 0422     		movs	r2, #4
 1108 009e 8A40     		lsls	r2, r2, r1
ARM GAS  C:\Users\maari\AppData\Local\Temp\ccCUEZrL.s 			page 42


 554:Drivers/STM32F0xx_HAL_Driver/Src/stm32f0xx_hal_dma.c ****   }
 1109              		.loc 1 554 32 view .LVU406
 1110 00a0 5A60     		str	r2, [r3, #4]
 1111 00a2 E5E7     		b	.L63
 1112              	.L54:
 503:Drivers/STM32F0xx_HAL_Driver/Src/stm32f0xx_hal_dma.c ****   {
 1113              		.loc 1 503 24 view .LVU407
 1114 00a4 E36B     		ldr	r3, [r4, #60]
 505:Drivers/STM32F0xx_HAL_Driver/Src/stm32f0xx_hal_dma.c ****     {
 1115              		.loc 1 505 68 view .LVU408
 1116 00a6 216C     		ldr	r1, [r4, #64]
 503:Drivers/STM32F0xx_HAL_Driver/Src/stm32f0xx_hal_dma.c ****   {
 1117              		.loc 1 503 16 is_stmt 1 view .LVU409
 503:Drivers/STM32F0xx_HAL_Driver/Src/stm32f0xx_hal_dma.c ****   {
 1118              		.loc 1 503 40 is_stmt 0 view .LVU410
 1119 00a8 1A68     		ldr	r2, [r3]
 503:Drivers/STM32F0xx_HAL_Driver/Src/stm32f0xx_hal_dma.c ****   {
 1120              		.loc 1 503 16 view .LVU411
 1121 00aa 1542     		tst	r5, r2
 1122 00ac D8D1     		bne	.L55
 505:Drivers/STM32F0xx_HAL_Driver/Src/stm32f0xx_hal_dma.c ****     {
 1123              		.loc 1 505 5 is_stmt 1 view .LVU412
 505:Drivers/STM32F0xx_HAL_Driver/Src/stm32f0xx_hal_dma.c ****     {
 1124              		.loc 1 505 61 is_stmt 0 view .LVU413
 1125 00ae 4A46     		mov	r2, r9
 1126 00b0 8A40     		lsls	r2, r2, r1
 505:Drivers/STM32F0xx_HAL_Driver/Src/stm32f0xx_hal_dma.c ****     {
 1127              		.loc 1 505 39 view .LVU414
 1128 00b2 1868     		ldr	r0, [r3]
 505:Drivers/STM32F0xx_HAL_Driver/Src/stm32f0xx_hal_dma.c ****     {
 1129              		.loc 1 505 8 view .LVU415
 1130 00b4 1042     		tst	r0, r2
 1131 00b6 E6D1     		bne	.L56
 524:Drivers/STM32F0xx_HAL_Driver/Src/stm32f0xx_hal_dma.c ****     {
 1132              		.loc 1 524 5 is_stmt 1 view .LVU416
 526:Drivers/STM32F0xx_HAL_Driver/Src/stm32f0xx_hal_dma.c ****       {
 1133              		.loc 1 526 7 view .LVU417
 526:Drivers/STM32F0xx_HAL_Driver/Src/stm32f0xx_hal_dma.c ****       {
 1134              		.loc 1 526 10 is_stmt 0 view .LVU418
 1135 00b8 002F     		cmp	r7, #0
 1136 00ba 05D0     		beq	.L60
 526:Drivers/STM32F0xx_HAL_Driver/Src/stm32f0xx_hal_dma.c ****       {
 1137              		.loc 1 526 32 discriminator 1 view .LVU419
 1138 00bc FFF7FEFF 		bl	HAL_GetTick
 1139              	.LVL72:
 526:Drivers/STM32F0xx_HAL_Driver/Src/stm32f0xx_hal_dma.c ****       {
 1140              		.loc 1 526 46 discriminator 1 view .LVU420
 1141 00c0 4346     		mov	r3, r8
 1142 00c2 C01A     		subs	r0, r0, r3
 526:Drivers/STM32F0xx_HAL_Driver/Src/stm32f0xx_hal_dma.c ****       {
 1143              		.loc 1 526 27 discriminator 1 view .LVU421
 1144 00c4 B842     		cmp	r0, r7
 1145 00c6 EDD9     		bls	.L54
 1146              	.L60:
 529:Drivers/STM32F0xx_HAL_Driver/Src/stm32f0xx_hal_dma.c **** 
 1147              		.loc 1 529 9 is_stmt 1 view .LVU422
 529:Drivers/STM32F0xx_HAL_Driver/Src/stm32f0xx_hal_dma.c **** 
ARM GAS  C:\Users\maari\AppData\Local\Temp\ccCUEZrL.s 			page 43


 1148              		.loc 1 529 25 is_stmt 0 view .LVU423
 1149 00c8 2023     		movs	r3, #32
 532:Drivers/STM32F0xx_HAL_Driver/Src/stm32f0xx_hal_dma.c **** 
 1150              		.loc 1 532 21 view .LVU424
 1151 00ca 2122     		movs	r2, #33
 1152 00cc 0121     		movs	r1, #1
 529:Drivers/STM32F0xx_HAL_Driver/Src/stm32f0xx_hal_dma.c **** 
 1153              		.loc 1 529 25 view .LVU425
 1154 00ce A363     		str	r3, [r4, #56]
 532:Drivers/STM32F0xx_HAL_Driver/Src/stm32f0xx_hal_dma.c **** 
 1155              		.loc 1 532 9 is_stmt 1 view .LVU426
 532:Drivers/STM32F0xx_HAL_Driver/Src/stm32f0xx_hal_dma.c **** 
 1156              		.loc 1 532 21 is_stmt 0 view .LVU427
 1157 00d0 A154     		strb	r1, [r4, r2]
 535:Drivers/STM32F0xx_HAL_Driver/Src/stm32f0xx_hal_dma.c **** 
 1158              		.loc 1 535 9 is_stmt 1 view .LVU428
 535:Drivers/STM32F0xx_HAL_Driver/Src/stm32f0xx_hal_dma.c **** 
 1159              		.loc 1 535 9 view .LVU429
 1160 00d2 0022     		movs	r2, #0
 1161 00d4 E254     		strb	r2, [r4, r3]
 535:Drivers/STM32F0xx_HAL_Driver/Src/stm32f0xx_hal_dma.c **** 
 1162              		.loc 1 535 9 view .LVU430
 537:Drivers/STM32F0xx_HAL_Driver/Src/stm32f0xx_hal_dma.c ****       }
 1163              		.loc 1 537 9 view .LVU431
 537:Drivers/STM32F0xx_HAL_Driver/Src/stm32f0xx_hal_dma.c ****       }
 1164              		.loc 1 537 16 is_stmt 0 view .LVU432
 1165 00d6 A4E7     		b	.L49
 1166              		.cfi_endproc
 1167              	.LFE46:
 1169              		.section	.text.HAL_DMA_IRQHandler,"ax",%progbits
 1170              		.align	1
 1171              		.p2align 2,,3
 1172              		.global	HAL_DMA_IRQHandler
 1173              		.syntax unified
 1174              		.code	16
 1175              		.thumb_func
 1177              	HAL_DMA_IRQHandler:
 1178              	.LVL73:
 1179              	.LFB47:
 570:Drivers/STM32F0xx_HAL_Driver/Src/stm32f0xx_hal_dma.c ****   uint32_t flag_it = hdma->DmaBaseAddress->ISR;
 1180              		.loc 1 570 1 is_stmt 1 view -0
 1181              		.cfi_startproc
 1182              		@ args = 0, pretend = 0, frame = 0
 1183              		@ frame_needed = 0, uses_anonymous_args = 0
 571:Drivers/STM32F0xx_HAL_Driver/Src/stm32f0xx_hal_dma.c ****   uint32_t source_it = hdma->Instance->CCR;
 1184              		.loc 1 571 3 view .LVU434
 575:Drivers/STM32F0xx_HAL_Driver/Src/stm32f0xx_hal_dma.c ****   {
 1185              		.loc 1 575 42 is_stmt 0 view .LVU435
 1186 0000 0421     		movs	r1, #4
 570:Drivers/STM32F0xx_HAL_Driver/Src/stm32f0xx_hal_dma.c ****   uint32_t flag_it = hdma->DmaBaseAddress->ISR;
 1187              		.loc 1 570 1 view .LVU436
 1188 0002 F8B5     		push	{r3, r4, r5, r6, r7, lr}
 1189              	.LCFI8:
 1190              		.cfi_def_cfa_offset 24
 1191              		.cfi_offset 3, -24
 1192              		.cfi_offset 4, -20
 1193              		.cfi_offset 5, -16
ARM GAS  C:\Users\maari\AppData\Local\Temp\ccCUEZrL.s 			page 44


 1194              		.cfi_offset 6, -12
 1195              		.cfi_offset 7, -8
 1196              		.cfi_offset 14, -4
 575:Drivers/STM32F0xx_HAL_Driver/Src/stm32f0xx_hal_dma.c ****   {
 1197              		.loc 1 575 42 view .LVU437
 1198 0004 0C00     		movs	r4, r1
 575:Drivers/STM32F0xx_HAL_Driver/Src/stm32f0xx_hal_dma.c ****   {
 1199              		.loc 1 575 49 view .LVU438
 1200 0006 036C     		ldr	r3, [r0, #64]
 571:Drivers/STM32F0xx_HAL_Driver/Src/stm32f0xx_hal_dma.c ****   uint32_t source_it = hdma->Instance->CCR;
 1201              		.loc 1 571 26 view .LVU439
 1202 0008 C76B     		ldr	r7, [r0, #60]
 575:Drivers/STM32F0xx_HAL_Driver/Src/stm32f0xx_hal_dma.c ****   {
 1203              		.loc 1 575 42 view .LVU440
 1204 000a 9C40     		lsls	r4, r4, r3
 571:Drivers/STM32F0xx_HAL_Driver/Src/stm32f0xx_hal_dma.c ****   uint32_t source_it = hdma->Instance->CCR;
 1205              		.loc 1 571 12 view .LVU441
 1206 000c 3A68     		ldr	r2, [r7]
 1207              	.LVL74:
 572:Drivers/STM32F0xx_HAL_Driver/Src/stm32f0xx_hal_dma.c **** 
 1208              		.loc 1 572 3 is_stmt 1 view .LVU442
 572:Drivers/STM32F0xx_HAL_Driver/Src/stm32f0xx_hal_dma.c **** 
 1209              		.loc 1 572 28 is_stmt 0 view .LVU443
 1210 000e 0668     		ldr	r6, [r0]
 572:Drivers/STM32F0xx_HAL_Driver/Src/stm32f0xx_hal_dma.c **** 
 1211              		.loc 1 572 12 view .LVU444
 1212 0010 3568     		ldr	r5, [r6]
 1213              	.LVL75:
 575:Drivers/STM32F0xx_HAL_Driver/Src/stm32f0xx_hal_dma.c ****   {
 1214              		.loc 1 575 3 is_stmt 1 view .LVU445
 575:Drivers/STM32F0xx_HAL_Driver/Src/stm32f0xx_hal_dma.c ****   {
 1215              		.loc 1 575 6 is_stmt 0 view .LVU446
 1216 0012 2242     		tst	r2, r4
 1217 0014 0DD0     		beq	.L70
 575:Drivers/STM32F0xx_HAL_Driver/Src/stm32f0xx_hal_dma.c ****   {
 1218              		.loc 1 575 67 discriminator 1 view .LVU447
 1219 0016 2942     		tst	r1, r5
 1220 0018 0BD0     		beq	.L70
 578:Drivers/STM32F0xx_HAL_Driver/Src/stm32f0xx_hal_dma.c ****     {
 1221              		.loc 1 578 5 is_stmt 1 view .LVU448
 578:Drivers/STM32F0xx_HAL_Driver/Src/stm32f0xx_hal_dma.c ****     {
 1222              		.loc 1 578 24 is_stmt 0 view .LVU449
 1223 001a 3368     		ldr	r3, [r6]
 578:Drivers/STM32F0xx_HAL_Driver/Src/stm32f0xx_hal_dma.c ****     {
 1224              		.loc 1 578 8 view .LVU450
 1225 001c 9B06     		lsls	r3, r3, #26
 1226 001e 02D4     		bmi	.L71
 581:Drivers/STM32F0xx_HAL_Driver/Src/stm32f0xx_hal_dma.c ****     }
 1227              		.loc 1 581 7 is_stmt 1 view .LVU451
 581:Drivers/STM32F0xx_HAL_Driver/Src/stm32f0xx_hal_dma.c ****     }
 1228              		.loc 1 581 21 is_stmt 0 view .LVU452
 1229 0020 3368     		ldr	r3, [r6]
 581:Drivers/STM32F0xx_HAL_Driver/Src/stm32f0xx_hal_dma.c ****     }
 1230              		.loc 1 581 27 view .LVU453
 1231 0022 8B43     		bics	r3, r1
 1232 0024 3360     		str	r3, [r6]
 1233              	.L71:
ARM GAS  C:\Users\maari\AppData\Local\Temp\ccCUEZrL.s 			page 45


 585:Drivers/STM32F0xx_HAL_Driver/Src/stm32f0xx_hal_dma.c **** 
 1234              		.loc 1 585 5 is_stmt 1 view .LVU454
 590:Drivers/STM32F0xx_HAL_Driver/Src/stm32f0xx_hal_dma.c ****     {
 1235              		.loc 1 590 13 is_stmt 0 view .LVU455
 1236 0026 C36A     		ldr	r3, [r0, #44]
 585:Drivers/STM32F0xx_HAL_Driver/Src/stm32f0xx_hal_dma.c **** 
 1237              		.loc 1 585 32 view .LVU456
 1238 0028 7C60     		str	r4, [r7, #4]
 590:Drivers/STM32F0xx_HAL_Driver/Src/stm32f0xx_hal_dma.c ****     {
 1239              		.loc 1 590 5 is_stmt 1 view .LVU457
 590:Drivers/STM32F0xx_HAL_Driver/Src/stm32f0xx_hal_dma.c ****     {
 1240              		.loc 1 590 8 is_stmt 0 view .LVU458
 1241 002a 002B     		cmp	r3, #0
 1242 002c 00D0     		beq	.L69
 646:Drivers/STM32F0xx_HAL_Driver/Src/stm32f0xx_hal_dma.c ****     }
 1243              		.loc 1 646 7 is_stmt 1 view .LVU459
 1244 002e 9847     		blx	r3
 1245              	.LVL76:
 1246              	.L69:
 649:Drivers/STM32F0xx_HAL_Driver/Src/stm32f0xx_hal_dma.c **** 
 1247              		.loc 1 649 1 is_stmt 0 view .LVU460
 1248              		@ sp needed
 1249              	.LVL77:
 649:Drivers/STM32F0xx_HAL_Driver/Src/stm32f0xx_hal_dma.c **** 
 1250              		.loc 1 649 1 view .LVU461
 1251 0030 F8BD     		pop	{r3, r4, r5, r6, r7, pc}
 1252              	.LVL78:
 1253              	.L70:
 598:Drivers/STM32F0xx_HAL_Driver/Src/stm32f0xx_hal_dma.c ****   {
 1254              		.loc 1 598 8 is_stmt 1 view .LVU462
 598:Drivers/STM32F0xx_HAL_Driver/Src/stm32f0xx_hal_dma.c ****   {
 1255              		.loc 1 598 47 is_stmt 0 view .LVU463
 1256 0032 0221     		movs	r1, #2
 1257 0034 0C00     		movs	r4, r1
 1258 0036 9C40     		lsls	r4, r4, r3
 598:Drivers/STM32F0xx_HAL_Driver/Src/stm32f0xx_hal_dma.c ****   {
 1259              		.loc 1 598 11 view .LVU464
 1260 0038 2242     		tst	r2, r4
 1261 003a 14D0     		beq	.L74
 598:Drivers/STM32F0xx_HAL_Driver/Src/stm32f0xx_hal_dma.c ****   {
 1262              		.loc 1 598 72 discriminator 1 view .LVU465
 1263 003c 2942     		tst	r1, r5
 1264 003e 12D0     		beq	.L74
 600:Drivers/STM32F0xx_HAL_Driver/Src/stm32f0xx_hal_dma.c ****     {
 1265              		.loc 1 600 5 is_stmt 1 view .LVU466
 600:Drivers/STM32F0xx_HAL_Driver/Src/stm32f0xx_hal_dma.c ****     {
 1266              		.loc 1 600 24 is_stmt 0 view .LVU467
 1267 0040 3368     		ldr	r3, [r6]
 600:Drivers/STM32F0xx_HAL_Driver/Src/stm32f0xx_hal_dma.c ****     {
 1268              		.loc 1 600 8 view .LVU468
 1269 0042 9B06     		lsls	r3, r3, #26
 1270 0044 06D4     		bmi	.L75
 604:Drivers/STM32F0xx_HAL_Driver/Src/stm32f0xx_hal_dma.c **** 
 1271              		.loc 1 604 7 is_stmt 1 view .LVU469
 604:Drivers/STM32F0xx_HAL_Driver/Src/stm32f0xx_hal_dma.c **** 
 1272              		.loc 1 604 27 is_stmt 0 view .LVU470
 1273 0046 0A22     		movs	r2, #10
ARM GAS  C:\Users\maari\AppData\Local\Temp\ccCUEZrL.s 			page 46


 1274              	.LVL79:
 604:Drivers/STM32F0xx_HAL_Driver/Src/stm32f0xx_hal_dma.c **** 
 1275              		.loc 1 604 21 view .LVU471
 1276 0048 3368     		ldr	r3, [r6]
 604:Drivers/STM32F0xx_HAL_Driver/Src/stm32f0xx_hal_dma.c **** 
 1277              		.loc 1 604 27 view .LVU472
 1278 004a 9343     		bics	r3, r2
 1279 004c 3360     		str	r3, [r6]
 607:Drivers/STM32F0xx_HAL_Driver/Src/stm32f0xx_hal_dma.c ****     }
 1280              		.loc 1 607 7 is_stmt 1 view .LVU473
 607:Drivers/STM32F0xx_HAL_Driver/Src/stm32f0xx_hal_dma.c ****     }
 1281              		.loc 1 607 19 is_stmt 0 view .LVU474
 1282 004e 2123     		movs	r3, #33
 1283 0050 093A     		subs	r2, r2, #9
 1284 0052 C254     		strb	r2, [r0, r3]
 1285              	.L75:
 611:Drivers/STM32F0xx_HAL_Driver/Src/stm32f0xx_hal_dma.c **** 
 1286              		.loc 1 611 5 is_stmt 1 view .LVU475
 614:Drivers/STM32F0xx_HAL_Driver/Src/stm32f0xx_hal_dma.c **** 
 1287              		.loc 1 614 5 is_stmt 0 view .LVU476
 1288 0054 2023     		movs	r3, #32
 1289 0056 0022     		movs	r2, #0
 611:Drivers/STM32F0xx_HAL_Driver/Src/stm32f0xx_hal_dma.c **** 
 1290              		.loc 1 611 32 view .LVU477
 1291 0058 7C60     		str	r4, [r7, #4]
 614:Drivers/STM32F0xx_HAL_Driver/Src/stm32f0xx_hal_dma.c **** 
 1292              		.loc 1 614 5 is_stmt 1 view .LVU478
 614:Drivers/STM32F0xx_HAL_Driver/Src/stm32f0xx_hal_dma.c **** 
 1293              		.loc 1 614 5 view .LVU479
 1294 005a C254     		strb	r2, [r0, r3]
 614:Drivers/STM32F0xx_HAL_Driver/Src/stm32f0xx_hal_dma.c **** 
 1295              		.loc 1 614 5 view .LVU480
 616:Drivers/STM32F0xx_HAL_Driver/Src/stm32f0xx_hal_dma.c ****     {
 1296              		.loc 1 616 5 view .LVU481
 616:Drivers/STM32F0xx_HAL_Driver/Src/stm32f0xx_hal_dma.c ****     {
 1297              		.loc 1 616 13 is_stmt 0 view .LVU482
 1298 005c 836A     		ldr	r3, [r0, #40]
 616:Drivers/STM32F0xx_HAL_Driver/Src/stm32f0xx_hal_dma.c ****     {
 1299              		.loc 1 616 8 view .LVU483
 1300 005e 002B     		cmp	r3, #0
 1301 0060 E6D0     		beq	.L69
 646:Drivers/STM32F0xx_HAL_Driver/Src/stm32f0xx_hal_dma.c ****     }
 1302              		.loc 1 646 7 is_stmt 1 view .LVU484
 1303 0062 9847     		blx	r3
 1304              	.LVL80:
 646:Drivers/STM32F0xx_HAL_Driver/Src/stm32f0xx_hal_dma.c ****     }
 1305              		.loc 1 646 7 is_stmt 0 view .LVU485
 1306 0064 E4E7     		b	.L69
 1307              	.LVL81:
 1308              	.L74:
 624:Drivers/STM32F0xx_HAL_Driver/Src/stm32f0xx_hal_dma.c ****   {
 1309              		.loc 1 624 8 is_stmt 1 view .LVU486
 624:Drivers/STM32F0xx_HAL_Driver/Src/stm32f0xx_hal_dma.c ****   {
 1310              		.loc 1 624 47 is_stmt 0 view .LVU487
 1311 0066 0821     		movs	r1, #8
 1312 0068 0C00     		movs	r4, r1
 1313 006a 9C40     		lsls	r4, r4, r3
ARM GAS  C:\Users\maari\AppData\Local\Temp\ccCUEZrL.s 			page 47


 624:Drivers/STM32F0xx_HAL_Driver/Src/stm32f0xx_hal_dma.c ****   {
 1314              		.loc 1 624 11 view .LVU488
 1315 006c 2242     		tst	r2, r4
 1316 006e DFD0     		beq	.L69
 624:Drivers/STM32F0xx_HAL_Driver/Src/stm32f0xx_hal_dma.c ****   {
 1317              		.loc 1 624 72 discriminator 1 view .LVU489
 1318 0070 2942     		tst	r1, r5
 1319 0072 DDD0     		beq	.L69
 629:Drivers/STM32F0xx_HAL_Driver/Src/stm32f0xx_hal_dma.c **** 
 1320              		.loc 1 629 5 is_stmt 1 view .LVU490
 629:Drivers/STM32F0xx_HAL_Driver/Src/stm32f0xx_hal_dma.c **** 
 1321              		.loc 1 629 19 is_stmt 0 view .LVU491
 1322 0074 3268     		ldr	r2, [r6]
 1323              	.LVL82:
 629:Drivers/STM32F0xx_HAL_Driver/Src/stm32f0xx_hal_dma.c **** 
 1324              		.loc 1 629 25 view .LVU492
 1325 0076 0631     		adds	r1, r1, #6
 1326 0078 8A43     		bics	r2, r1
 1327 007a 3260     		str	r2, [r6]
 632:Drivers/STM32F0xx_HAL_Driver/Src/stm32f0xx_hal_dma.c **** 
 1328              		.loc 1 632 5 is_stmt 1 view .LVU493
 632:Drivers/STM32F0xx_HAL_Driver/Src/stm32f0xx_hal_dma.c **** 
 1329              		.loc 1 632 47 is_stmt 0 view .LVU494
 1330 007c 0122     		movs	r2, #1
 1331 007e 1100     		movs	r1, r2
 1332 0080 9940     		lsls	r1, r1, r3
 638:Drivers/STM32F0xx_HAL_Driver/Src/stm32f0xx_hal_dma.c **** 
 1333              		.loc 1 638 17 view .LVU495
 1334 0082 2123     		movs	r3, #33
 632:Drivers/STM32F0xx_HAL_Driver/Src/stm32f0xx_hal_dma.c **** 
 1335              		.loc 1 632 32 view .LVU496
 1336 0084 7960     		str	r1, [r7, #4]
 635:Drivers/STM32F0xx_HAL_Driver/Src/stm32f0xx_hal_dma.c **** 
 1337              		.loc 1 635 5 is_stmt 1 view .LVU497
 635:Drivers/STM32F0xx_HAL_Driver/Src/stm32f0xx_hal_dma.c **** 
 1338              		.loc 1 635 21 is_stmt 0 view .LVU498
 1339 0086 8263     		str	r2, [r0, #56]
 638:Drivers/STM32F0xx_HAL_Driver/Src/stm32f0xx_hal_dma.c **** 
 1340              		.loc 1 638 5 is_stmt 1 view .LVU499
 638:Drivers/STM32F0xx_HAL_Driver/Src/stm32f0xx_hal_dma.c **** 
 1341              		.loc 1 638 17 is_stmt 0 view .LVU500
 1342 0088 C254     		strb	r2, [r0, r3]
 641:Drivers/STM32F0xx_HAL_Driver/Src/stm32f0xx_hal_dma.c **** 
 1343              		.loc 1 641 5 is_stmt 1 view .LVU501
 641:Drivers/STM32F0xx_HAL_Driver/Src/stm32f0xx_hal_dma.c **** 
 1344              		.loc 1 641 5 view .LVU502
 1345 008a 0022     		movs	r2, #0
 1346 008c 013B     		subs	r3, r3, #1
 1347 008e C254     		strb	r2, [r0, r3]
 641:Drivers/STM32F0xx_HAL_Driver/Src/stm32f0xx_hal_dma.c **** 
 1348              		.loc 1 641 5 view .LVU503
 643:Drivers/STM32F0xx_HAL_Driver/Src/stm32f0xx_hal_dma.c ****     {
 1349              		.loc 1 643 5 view .LVU504
 643:Drivers/STM32F0xx_HAL_Driver/Src/stm32f0xx_hal_dma.c ****     {
 1350              		.loc 1 643 13 is_stmt 0 view .LVU505
 1351 0090 036B     		ldr	r3, [r0, #48]
 643:Drivers/STM32F0xx_HAL_Driver/Src/stm32f0xx_hal_dma.c ****     {
ARM GAS  C:\Users\maari\AppData\Local\Temp\ccCUEZrL.s 			page 48


 1352              		.loc 1 643 8 view .LVU506
 1353 0092 002B     		cmp	r3, #0
 1354 0094 CCD0     		beq	.L69
 646:Drivers/STM32F0xx_HAL_Driver/Src/stm32f0xx_hal_dma.c ****     }
 1355              		.loc 1 646 7 is_stmt 1 view .LVU507
 1356 0096 9847     		blx	r3
 1357              	.LVL83:
 646:Drivers/STM32F0xx_HAL_Driver/Src/stm32f0xx_hal_dma.c ****     }
 1358              		.loc 1 646 7 is_stmt 0 view .LVU508
 1359 0098 CAE7     		b	.L69
 1360              		.cfi_endproc
 1361              	.LFE47:
 1363 009a C046     		.section	.text.HAL_DMA_RegisterCallback,"ax",%progbits
 1364              		.align	1
 1365              		.p2align 2,,3
 1366              		.global	HAL_DMA_RegisterCallback
 1367              		.syntax unified
 1368              		.code	16
 1369              		.thumb_func
 1371              	HAL_DMA_RegisterCallback:
 1372              	.LVL84:
 1373              	.LFB48:
 662:Drivers/STM32F0xx_HAL_Driver/Src/stm32f0xx_hal_dma.c ****   HAL_StatusTypeDef status = HAL_OK;
 1374              		.loc 1 662 1 is_stmt 1 view -0
 1375              		.cfi_startproc
 1376              		@ args = 0, pretend = 0, frame = 0
 1377              		@ frame_needed = 0, uses_anonymous_args = 0
 663:Drivers/STM32F0xx_HAL_Driver/Src/stm32f0xx_hal_dma.c **** 
 1378              		.loc 1 663 3 view .LVU510
 666:Drivers/STM32F0xx_HAL_Driver/Src/stm32f0xx_hal_dma.c **** 
 1379              		.loc 1 666 3 view .LVU511
 666:Drivers/STM32F0xx_HAL_Driver/Src/stm32f0xx_hal_dma.c **** 
 1380              		.loc 1 666 3 view .LVU512
 662:Drivers/STM32F0xx_HAL_Driver/Src/stm32f0xx_hal_dma.c ****   HAL_StatusTypeDef status = HAL_OK;
 1381              		.loc 1 662 1 is_stmt 0 view .LVU513
 1382 0000 0300     		movs	r3, r0
 666:Drivers/STM32F0xx_HAL_Driver/Src/stm32f0xx_hal_dma.c **** 
 1383              		.loc 1 666 3 view .LVU514
 1384 0002 2020     		movs	r0, #32
 1385              	.LVL85:
 666:Drivers/STM32F0xx_HAL_Driver/Src/stm32f0xx_hal_dma.c **** 
 1386              		.loc 1 666 3 view .LVU515
 1387 0004 185C     		ldrb	r0, [r3, r0]
 662:Drivers/STM32F0xx_HAL_Driver/Src/stm32f0xx_hal_dma.c ****   HAL_StatusTypeDef status = HAL_OK;
 1388              		.loc 1 662 1 view .LVU516
 1389 0006 10B5     		push	{r4, lr}
 1390              	.LCFI9:
 1391              		.cfi_def_cfa_offset 8
 1392              		.cfi_offset 4, -8
 1393              		.cfi_offset 14, -4
 666:Drivers/STM32F0xx_HAL_Driver/Src/stm32f0xx_hal_dma.c **** 
 1394              		.loc 1 666 3 view .LVU517
 1395 0008 0128     		cmp	r0, #1
 1396 000a 16D0     		beq	.L113
 666:Drivers/STM32F0xx_HAL_Driver/Src/stm32f0xx_hal_dma.c **** 
 1397              		.loc 1 666 3 is_stmt 1 discriminator 2 view .LVU518
 666:Drivers/STM32F0xx_HAL_Driver/Src/stm32f0xx_hal_dma.c **** 
ARM GAS  C:\Users\maari\AppData\Local\Temp\ccCUEZrL.s 			page 49


 1398              		.loc 1 666 3 discriminator 2 view .LVU519
 668:Drivers/STM32F0xx_HAL_Driver/Src/stm32f0xx_hal_dma.c ****   {
 1399              		.loc 1 668 3 view .LVU520
 668:Drivers/STM32F0xx_HAL_Driver/Src/stm32f0xx_hal_dma.c ****   {
 1400              		.loc 1 668 34 is_stmt 0 view .LVU521
 1401 000c 2120     		movs	r0, #33
 1402 000e 1C5C     		ldrb	r4, [r3, r0]
 1403 0010 E0B2     		uxtb	r0, r4
 668:Drivers/STM32F0xx_HAL_Driver/Src/stm32f0xx_hal_dma.c ****   {
 1404              		.loc 1 668 6 view .LVU522
 1405 0012 012C     		cmp	r4, #1
 1406 0014 04D0     		beq	.L116
 1407 0016 0120     		movs	r0, #1
 1408              	.L106:
 1409              	.LVL86:
 699:Drivers/STM32F0xx_HAL_Driver/Src/stm32f0xx_hal_dma.c **** 
 1410              		.loc 1 699 3 is_stmt 1 view .LVU523
 699:Drivers/STM32F0xx_HAL_Driver/Src/stm32f0xx_hal_dma.c **** 
 1411              		.loc 1 699 3 view .LVU524
 1412 0018 2022     		movs	r2, #32
 1413              	.LVL87:
 699:Drivers/STM32F0xx_HAL_Driver/Src/stm32f0xx_hal_dma.c **** 
 1414              		.loc 1 699 3 is_stmt 0 view .LVU525
 1415 001a 0021     		movs	r1, #0
 1416              	.LVL88:
 699:Drivers/STM32F0xx_HAL_Driver/Src/stm32f0xx_hal_dma.c **** 
 1417              		.loc 1 699 3 view .LVU526
 1418 001c 9954     		strb	r1, [r3, r2]
 699:Drivers/STM32F0xx_HAL_Driver/Src/stm32f0xx_hal_dma.c **** 
 1419              		.loc 1 699 3 is_stmt 1 view .LVU527
 701:Drivers/STM32F0xx_HAL_Driver/Src/stm32f0xx_hal_dma.c **** }
 1420              		.loc 1 701 3 view .LVU528
 1421              	.LVL89:
 1422              	.L105:
 702:Drivers/STM32F0xx_HAL_Driver/Src/stm32f0xx_hal_dma.c **** 
 1423              		.loc 1 702 1 is_stmt 0 view .LVU529
 1424              		@ sp needed
 1425 001e 10BD     		pop	{r4, pc}
 1426              	.LVL90:
 1427              	.L116:
 670:Drivers/STM32F0xx_HAL_Driver/Src/stm32f0xx_hal_dma.c ****     {
 1428              		.loc 1 670 5 is_stmt 1 view .LVU530
 1429 0020 0229     		cmp	r1, #2
 1430 0022 0FD0     		beq	.L107
 1431 0024 04D8     		bhi	.L108
 1432 0026 0029     		cmp	r1, #0
 1433 0028 09D0     		beq	.L117
 677:Drivers/STM32F0xx_HAL_Driver/Src/stm32f0xx_hal_dma.c ****         break;
 1434              		.loc 1 677 9 view .LVU531
 663:Drivers/STM32F0xx_HAL_Driver/Src/stm32f0xx_hal_dma.c **** 
 1435              		.loc 1 663 21 is_stmt 0 view .LVU532
 1436 002a 0020     		movs	r0, #0
 677:Drivers/STM32F0xx_HAL_Driver/Src/stm32f0xx_hal_dma.c ****         break;
 1437              		.loc 1 677 36 view .LVU533
 1438 002c DA62     		str	r2, [r3, #44]
 678:Drivers/STM32F0xx_HAL_Driver/Src/stm32f0xx_hal_dma.c **** 
 1439              		.loc 1 678 9 is_stmt 1 view .LVU534
ARM GAS  C:\Users\maari\AppData\Local\Temp\ccCUEZrL.s 			page 50


 1440 002e F3E7     		b	.L106
 1441              	.L108:
 670:Drivers/STM32F0xx_HAL_Driver/Src/stm32f0xx_hal_dma.c ****     {
 1442              		.loc 1 670 5 is_stmt 0 view .LVU535
 1443 0030 0329     		cmp	r1, #3
 1444 0032 F1D1     		bne	.L106
 685:Drivers/STM32F0xx_HAL_Driver/Src/stm32f0xx_hal_dma.c ****         break;
 1445              		.loc 1 685 9 is_stmt 1 view .LVU536
 663:Drivers/STM32F0xx_HAL_Driver/Src/stm32f0xx_hal_dma.c **** 
 1446              		.loc 1 663 21 is_stmt 0 view .LVU537
 1447 0034 0020     		movs	r0, #0
 685:Drivers/STM32F0xx_HAL_Driver/Src/stm32f0xx_hal_dma.c ****         break;
 1448              		.loc 1 685 33 view .LVU538
 1449 0036 5A63     		str	r2, [r3, #52]
 686:Drivers/STM32F0xx_HAL_Driver/Src/stm32f0xx_hal_dma.c **** 
 1450              		.loc 1 686 9 is_stmt 1 view .LVU539
 1451 0038 EEE7     		b	.L106
 1452              	.L113:
 666:Drivers/STM32F0xx_HAL_Driver/Src/stm32f0xx_hal_dma.c **** 
 1453              		.loc 1 666 3 is_stmt 0 discriminator 1 view .LVU540
 1454 003a 0220     		movs	r0, #2
 1455 003c EFE7     		b	.L105
 1456              	.L117:
 673:Drivers/STM32F0xx_HAL_Driver/Src/stm32f0xx_hal_dma.c ****         break;
 1457              		.loc 1 673 9 is_stmt 1 view .LVU541
 663:Drivers/STM32F0xx_HAL_Driver/Src/stm32f0xx_hal_dma.c **** 
 1458              		.loc 1 663 21 is_stmt 0 view .LVU542
 1459 003e 0020     		movs	r0, #0
 673:Drivers/STM32F0xx_HAL_Driver/Src/stm32f0xx_hal_dma.c ****         break;
 1460              		.loc 1 673 32 view .LVU543
 1461 0040 9A62     		str	r2, [r3, #40]
 674:Drivers/STM32F0xx_HAL_Driver/Src/stm32f0xx_hal_dma.c **** 
 1462              		.loc 1 674 9 is_stmt 1 view .LVU544
 1463 0042 E9E7     		b	.L106
 1464              	.L107:
 681:Drivers/STM32F0xx_HAL_Driver/Src/stm32f0xx_hal_dma.c ****         break;
 1465              		.loc 1 681 9 view .LVU545
 663:Drivers/STM32F0xx_HAL_Driver/Src/stm32f0xx_hal_dma.c **** 
 1466              		.loc 1 663 21 is_stmt 0 view .LVU546
 1467 0044 0020     		movs	r0, #0
 681:Drivers/STM32F0xx_HAL_Driver/Src/stm32f0xx_hal_dma.c ****         break;
 1468              		.loc 1 681 33 view .LVU547
 1469 0046 1A63     		str	r2, [r3, #48]
 682:Drivers/STM32F0xx_HAL_Driver/Src/stm32f0xx_hal_dma.c **** 
 1470              		.loc 1 682 9 is_stmt 1 view .LVU548
 1471 0048 E6E7     		b	.L106
 1472              		.cfi_endproc
 1473              	.LFE48:
 1475 004a C046     		.section	.text.HAL_DMA_UnRegisterCallback,"ax",%progbits
 1476              		.align	1
 1477              		.p2align 2,,3
 1478              		.global	HAL_DMA_UnRegisterCallback
 1479              		.syntax unified
 1480              		.code	16
 1481              		.thumb_func
 1483              	HAL_DMA_UnRegisterCallback:
 1484              	.LVL91:
ARM GAS  C:\Users\maari\AppData\Local\Temp\ccCUEZrL.s 			page 51


 1485              	.LFB49:
 713:Drivers/STM32F0xx_HAL_Driver/Src/stm32f0xx_hal_dma.c ****   HAL_StatusTypeDef status = HAL_OK;
 1486              		.loc 1 713 1 view -0
 1487              		.cfi_startproc
 1488              		@ args = 0, pretend = 0, frame = 0
 1489              		@ frame_needed = 0, uses_anonymous_args = 0
 1490              		@ link register save eliminated.
 714:Drivers/STM32F0xx_HAL_Driver/Src/stm32f0xx_hal_dma.c **** 
 1491              		.loc 1 714 3 view .LVU550
 717:Drivers/STM32F0xx_HAL_Driver/Src/stm32f0xx_hal_dma.c **** 
 1492              		.loc 1 717 3 view .LVU551
 717:Drivers/STM32F0xx_HAL_Driver/Src/stm32f0xx_hal_dma.c **** 
 1493              		.loc 1 717 3 view .LVU552
 1494 0000 2022     		movs	r2, #32
 713:Drivers/STM32F0xx_HAL_Driver/Src/stm32f0xx_hal_dma.c ****   HAL_StatusTypeDef status = HAL_OK;
 1495              		.loc 1 713 1 is_stmt 0 view .LVU553
 1496 0002 0300     		movs	r3, r0
 717:Drivers/STM32F0xx_HAL_Driver/Src/stm32f0xx_hal_dma.c **** 
 1497              		.loc 1 717 3 view .LVU554
 1498 0004 805C     		ldrb	r0, [r0, r2]
 1499              	.LVL92:
 717:Drivers/STM32F0xx_HAL_Driver/Src/stm32f0xx_hal_dma.c **** 
 1500              		.loc 1 717 3 view .LVU555
 1501 0006 0128     		cmp	r0, #1
 1502 0008 11D0     		beq	.L128
 717:Drivers/STM32F0xx_HAL_Driver/Src/stm32f0xx_hal_dma.c **** 
 1503              		.loc 1 717 3 is_stmt 1 discriminator 2 view .LVU556
 1504 000a 0120     		movs	r0, #1
 1505 000c 9854     		strb	r0, [r3, r2]
 717:Drivers/STM32F0xx_HAL_Driver/Src/stm32f0xx_hal_dma.c **** 
 1506              		.loc 1 717 3 discriminator 2 view .LVU557
 719:Drivers/STM32F0xx_HAL_Driver/Src/stm32f0xx_hal_dma.c ****   {
 1507              		.loc 1 719 3 view .LVU558
 719:Drivers/STM32F0xx_HAL_Driver/Src/stm32f0xx_hal_dma.c ****   {
 1508              		.loc 1 719 34 is_stmt 0 view .LVU559
 1509 000e 0132     		adds	r2, r2, #1
 1510 0010 9A5C     		ldrb	r2, [r3, r2]
 1511 0012 D0B2     		uxtb	r0, r2
 719:Drivers/STM32F0xx_HAL_Driver/Src/stm32f0xx_hal_dma.c ****   {
 1512              		.loc 1 719 6 view .LVU560
 1513 0014 012A     		cmp	r2, #1
 1514 0016 04D0     		beq	.L130
 1515 0018 0120     		movs	r0, #1
 1516              	.LVL93:
 1517              	.L120:
 757:Drivers/STM32F0xx_HAL_Driver/Src/stm32f0xx_hal_dma.c **** 
 1518              		.loc 1 757 3 is_stmt 1 view .LVU561
 757:Drivers/STM32F0xx_HAL_Driver/Src/stm32f0xx_hal_dma.c **** 
 1519              		.loc 1 757 3 view .LVU562
 1520 001a 2022     		movs	r2, #32
 1521 001c 0021     		movs	r1, #0
 1522 001e 9954     		strb	r1, [r3, r2]
 757:Drivers/STM32F0xx_HAL_Driver/Src/stm32f0xx_hal_dma.c **** 
 1523              		.loc 1 757 3 view .LVU563
 759:Drivers/STM32F0xx_HAL_Driver/Src/stm32f0xx_hal_dma.c **** }
 1524              		.loc 1 759 3 view .LVU564
 1525              	.LVL94:
ARM GAS  C:\Users\maari\AppData\Local\Temp\ccCUEZrL.s 			page 52


 1526              	.L119:
 760:Drivers/STM32F0xx_HAL_Driver/Src/stm32f0xx_hal_dma.c **** 
 1527              		.loc 1 760 1 is_stmt 0 view .LVU565
 1528              		@ sp needed
 1529 0020 7047     		bx	lr
 1530              	.LVL95:
 1531              	.L130:
 721:Drivers/STM32F0xx_HAL_Driver/Src/stm32f0xx_hal_dma.c ****     {
 1532              		.loc 1 721 5 is_stmt 1 view .LVU566
 1533 0022 0429     		cmp	r1, #4
 1534 0024 F9D8     		bhi	.L120
 1535 0026 0E4A     		ldr	r2, .L131
 1536 0028 8900     		lsls	r1, r1, #2
 1537              	.LVL96:
 721:Drivers/STM32F0xx_HAL_Driver/Src/stm32f0xx_hal_dma.c ****     {
 1538              		.loc 1 721 5 is_stmt 0 view .LVU567
 1539 002a 5258     		ldr	r2, [r2, r1]
 1540 002c 9746     		mov	pc, r2
 1541              		.section	.rodata.HAL_DMA_UnRegisterCallback,"a",%progbits
 1542              		.align	2
 1543              	.L122:
 1544 0000 58000000 		.word	.L126
 1545 0004 48000000 		.word	.L125
 1546 0008 50000000 		.word	.L124
 1547 000c 32000000 		.word	.L123
 1548 0010 3A000000 		.word	.L121
 1549              		.section	.text.HAL_DMA_UnRegisterCallback
 1550              	.LVL97:
 1551              	.L128:
 717:Drivers/STM32F0xx_HAL_Driver/Src/stm32f0xx_hal_dma.c **** 
 1552              		.loc 1 717 3 discriminator 1 view .LVU568
 1553 002e 0220     		movs	r0, #2
 1554 0030 F6E7     		b	.L119
 1555              	.LVL98:
 1556              	.L123:
 736:Drivers/STM32F0xx_HAL_Driver/Src/stm32f0xx_hal_dma.c ****         break;
 1557              		.loc 1 736 9 is_stmt 1 view .LVU569
 736:Drivers/STM32F0xx_HAL_Driver/Src/stm32f0xx_hal_dma.c ****         break;
 1558              		.loc 1 736 33 is_stmt 0 view .LVU570
 1559 0032 0022     		movs	r2, #0
 714:Drivers/STM32F0xx_HAL_Driver/Src/stm32f0xx_hal_dma.c **** 
 1560              		.loc 1 714 21 view .LVU571
 1561 0034 0020     		movs	r0, #0
 736:Drivers/STM32F0xx_HAL_Driver/Src/stm32f0xx_hal_dma.c ****         break;
 1562              		.loc 1 736 33 view .LVU572
 1563 0036 5A63     		str	r2, [r3, #52]
 737:Drivers/STM32F0xx_HAL_Driver/Src/stm32f0xx_hal_dma.c **** 
 1564              		.loc 1 737 9 is_stmt 1 view .LVU573
 1565 0038 EFE7     		b	.L120
 1566              	.L121:
 740:Drivers/STM32F0xx_HAL_Driver/Src/stm32f0xx_hal_dma.c ****         hdma->XferHalfCpltCallback = NULL;
 1567              		.loc 1 740 9 view .LVU574
 740:Drivers/STM32F0xx_HAL_Driver/Src/stm32f0xx_hal_dma.c ****         hdma->XferHalfCpltCallback = NULL;
 1568              		.loc 1 740 32 is_stmt 0 view .LVU575
 1569 003a 0022     		movs	r2, #0
 714:Drivers/STM32F0xx_HAL_Driver/Src/stm32f0xx_hal_dma.c **** 
 1570              		.loc 1 714 21 view .LVU576
ARM GAS  C:\Users\maari\AppData\Local\Temp\ccCUEZrL.s 			page 53


 1571 003c 0020     		movs	r0, #0
 740:Drivers/STM32F0xx_HAL_Driver/Src/stm32f0xx_hal_dma.c ****         hdma->XferHalfCpltCallback = NULL;
 1572              		.loc 1 740 32 view .LVU577
 1573 003e 9A62     		str	r2, [r3, #40]
 741:Drivers/STM32F0xx_HAL_Driver/Src/stm32f0xx_hal_dma.c ****         hdma->XferErrorCallback = NULL;
 1574              		.loc 1 741 9 is_stmt 1 view .LVU578
 741:Drivers/STM32F0xx_HAL_Driver/Src/stm32f0xx_hal_dma.c ****         hdma->XferErrorCallback = NULL;
 1575              		.loc 1 741 36 is_stmt 0 view .LVU579
 1576 0040 DA62     		str	r2, [r3, #44]
 742:Drivers/STM32F0xx_HAL_Driver/Src/stm32f0xx_hal_dma.c ****         hdma->XferAbortCallback = NULL;
 1577              		.loc 1 742 9 is_stmt 1 view .LVU580
 742:Drivers/STM32F0xx_HAL_Driver/Src/stm32f0xx_hal_dma.c ****         hdma->XferAbortCallback = NULL;
 1578              		.loc 1 742 33 is_stmt 0 view .LVU581
 1579 0042 1A63     		str	r2, [r3, #48]
 743:Drivers/STM32F0xx_HAL_Driver/Src/stm32f0xx_hal_dma.c ****         break;
 1580              		.loc 1 743 9 is_stmt 1 view .LVU582
 743:Drivers/STM32F0xx_HAL_Driver/Src/stm32f0xx_hal_dma.c ****         break;
 1581              		.loc 1 743 33 is_stmt 0 view .LVU583
 1582 0044 5A63     		str	r2, [r3, #52]
 744:Drivers/STM32F0xx_HAL_Driver/Src/stm32f0xx_hal_dma.c **** 
 1583              		.loc 1 744 9 is_stmt 1 view .LVU584
 1584 0046 E8E7     		b	.L120
 1585              	.L125:
 728:Drivers/STM32F0xx_HAL_Driver/Src/stm32f0xx_hal_dma.c ****         break;
 1586              		.loc 1 728 9 view .LVU585
 728:Drivers/STM32F0xx_HAL_Driver/Src/stm32f0xx_hal_dma.c ****         break;
 1587              		.loc 1 728 36 is_stmt 0 view .LVU586
 1588 0048 0022     		movs	r2, #0
 714:Drivers/STM32F0xx_HAL_Driver/Src/stm32f0xx_hal_dma.c **** 
 1589              		.loc 1 714 21 view .LVU587
 1590 004a 0020     		movs	r0, #0
 728:Drivers/STM32F0xx_HAL_Driver/Src/stm32f0xx_hal_dma.c ****         break;
 1591              		.loc 1 728 36 view .LVU588
 1592 004c DA62     		str	r2, [r3, #44]
 729:Drivers/STM32F0xx_HAL_Driver/Src/stm32f0xx_hal_dma.c **** 
 1593              		.loc 1 729 9 is_stmt 1 view .LVU589
 1594 004e E4E7     		b	.L120
 1595              	.L124:
 732:Drivers/STM32F0xx_HAL_Driver/Src/stm32f0xx_hal_dma.c ****         break;
 1596              		.loc 1 732 9 view .LVU590
 732:Drivers/STM32F0xx_HAL_Driver/Src/stm32f0xx_hal_dma.c ****         break;
 1597              		.loc 1 732 33 is_stmt 0 view .LVU591
 1598 0050 0022     		movs	r2, #0
 714:Drivers/STM32F0xx_HAL_Driver/Src/stm32f0xx_hal_dma.c **** 
 1599              		.loc 1 714 21 view .LVU592
 1600 0052 0020     		movs	r0, #0
 732:Drivers/STM32F0xx_HAL_Driver/Src/stm32f0xx_hal_dma.c ****         break;
 1601              		.loc 1 732 33 view .LVU593
 1602 0054 1A63     		str	r2, [r3, #48]
 733:Drivers/STM32F0xx_HAL_Driver/Src/stm32f0xx_hal_dma.c **** 
 1603              		.loc 1 733 9 is_stmt 1 view .LVU594
 1604 0056 E0E7     		b	.L120
 1605              	.L126:
 724:Drivers/STM32F0xx_HAL_Driver/Src/stm32f0xx_hal_dma.c ****         break;
 1606              		.loc 1 724 9 view .LVU595
 724:Drivers/STM32F0xx_HAL_Driver/Src/stm32f0xx_hal_dma.c ****         break;
 1607              		.loc 1 724 32 is_stmt 0 view .LVU596
ARM GAS  C:\Users\maari\AppData\Local\Temp\ccCUEZrL.s 			page 54


 1608 0058 0022     		movs	r2, #0
 714:Drivers/STM32F0xx_HAL_Driver/Src/stm32f0xx_hal_dma.c **** 
 1609              		.loc 1 714 21 view .LVU597
 1610 005a 0020     		movs	r0, #0
 724:Drivers/STM32F0xx_HAL_Driver/Src/stm32f0xx_hal_dma.c ****         break;
 1611              		.loc 1 724 32 view .LVU598
 1612 005c 9A62     		str	r2, [r3, #40]
 725:Drivers/STM32F0xx_HAL_Driver/Src/stm32f0xx_hal_dma.c **** 
 1613              		.loc 1 725 9 is_stmt 1 view .LVU599
 1614 005e DCE7     		b	.L120
 1615              	.L132:
 1616              		.align	2
 1617              	.L131:
 1618 0060 00000000 		.word	.L122
 1619              		.cfi_endproc
 1620              	.LFE49:
 1622              		.section	.text.HAL_DMA_GetState,"ax",%progbits
 1623              		.align	1
 1624              		.p2align 2,,3
 1625              		.global	HAL_DMA_GetState
 1626              		.syntax unified
 1627              		.code	16
 1628              		.thumb_func
 1630              	HAL_DMA_GetState:
 1631              	.LVL99:
 1632              	.LFB50:
 789:Drivers/STM32F0xx_HAL_Driver/Src/stm32f0xx_hal_dma.c ****   return hdma->State;
 1633              		.loc 1 789 1 view -0
 1634              		.cfi_startproc
 1635              		@ args = 0, pretend = 0, frame = 0
 1636              		@ frame_needed = 0, uses_anonymous_args = 0
 1637              		@ link register save eliminated.
 790:Drivers/STM32F0xx_HAL_Driver/Src/stm32f0xx_hal_dma.c **** }
 1638              		.loc 1 790 3 view .LVU601
 790:Drivers/STM32F0xx_HAL_Driver/Src/stm32f0xx_hal_dma.c **** }
 1639              		.loc 1 790 14 is_stmt 0 view .LVU602
 1640 0000 2123     		movs	r3, #33
 791:Drivers/STM32F0xx_HAL_Driver/Src/stm32f0xx_hal_dma.c **** 
 1641              		.loc 1 791 1 view .LVU603
 1642              		@ sp needed
 790:Drivers/STM32F0xx_HAL_Driver/Src/stm32f0xx_hal_dma.c **** }
 1643              		.loc 1 790 14 view .LVU604
 1644 0002 C05C     		ldrb	r0, [r0, r3]
 1645              	.LVL100:
 790:Drivers/STM32F0xx_HAL_Driver/Src/stm32f0xx_hal_dma.c **** }
 1646              		.loc 1 790 14 view .LVU605
 1647 0004 C0B2     		uxtb	r0, r0
 791:Drivers/STM32F0xx_HAL_Driver/Src/stm32f0xx_hal_dma.c **** 
 1648              		.loc 1 791 1 view .LVU606
 1649 0006 7047     		bx	lr
 1650              		.cfi_endproc
 1651              	.LFE50:
 1653              		.section	.text.HAL_DMA_GetError,"ax",%progbits
 1654              		.align	1
 1655              		.p2align 2,,3
 1656              		.global	HAL_DMA_GetError
 1657              		.syntax unified
ARM GAS  C:\Users\maari\AppData\Local\Temp\ccCUEZrL.s 			page 55


 1658              		.code	16
 1659              		.thumb_func
 1661              	HAL_DMA_GetError:
 1662              	.LVL101:
 1663              	.LFB51:
 800:Drivers/STM32F0xx_HAL_Driver/Src/stm32f0xx_hal_dma.c ****   return hdma->ErrorCode;
 1664              		.loc 1 800 1 is_stmt 1 view -0
 1665              		.cfi_startproc
 1666              		@ args = 0, pretend = 0, frame = 0
 1667              		@ frame_needed = 0, uses_anonymous_args = 0
 1668              		@ link register save eliminated.
 801:Drivers/STM32F0xx_HAL_Driver/Src/stm32f0xx_hal_dma.c **** }
 1669              		.loc 1 801 3 view .LVU608
 801:Drivers/STM32F0xx_HAL_Driver/Src/stm32f0xx_hal_dma.c **** }
 1670              		.loc 1 801 14 is_stmt 0 view .LVU609
 1671 0000 806B     		ldr	r0, [r0, #56]
 1672              	.LVL102:
 802:Drivers/STM32F0xx_HAL_Driver/Src/stm32f0xx_hal_dma.c **** 
 1673              		.loc 1 802 1 view .LVU610
 1674              		@ sp needed
 1675 0002 7047     		bx	lr
 1676              		.cfi_endproc
 1677              	.LFE51:
 1679              		.text
 1680              	.Letext0:
 1681              		.file 2 "C:\\ST\\STM32CubeIDE_1.19.0\\STM32CubeIDE\\plugins\\com.st.stm32cube.ide.mcu.externaltool
 1682              		.file 3 "C:\\ST\\STM32CubeIDE_1.19.0\\STM32CubeIDE\\plugins\\com.st.stm32cube.ide.mcu.externaltool
 1683              		.file 4 "Drivers/CMSIS/Device/ST/STM32F0xx/Include/stm32f051x8.h"
 1684              		.file 5 "Drivers/CMSIS/Device/ST/STM32F0xx/Include/stm32f0xx.h"
 1685              		.file 6 "Drivers/STM32F0xx_HAL_Driver/Inc/stm32f0xx_hal_def.h"
 1686              		.file 7 "Drivers/STM32F0xx_HAL_Driver/Inc/stm32f0xx_hal_dma.h"
 1687              		.file 8 "Drivers/STM32F0xx_HAL_Driver/Inc/stm32f0xx_hal.h"
ARM GAS  C:\Users\maari\AppData\Local\Temp\ccCUEZrL.s 			page 56

